ARM GAS  /tmp/ccF3Fkuv.s 			page 1


   1              		.cpu cortex-m0plus
   2              		.arch armv6s-m
   3              		.fpu softvfp
   4              		.eabi_attribute 20, 1
   5              		.eabi_attribute 21, 1
   6              		.eabi_attribute 23, 3
   7              		.eabi_attribute 24, 1
   8              		.eabi_attribute 25, 1
   9              		.eabi_attribute 26, 1
  10              		.eabi_attribute 30, 1
  11              		.eabi_attribute 34, 0
  12              		.eabi_attribute 18, 4
  13              		.file	"stm32l0xx_hal_timebase_tim.c"
  14              		.text
  15              	.Ltext0:
  16              		.cfi_sections	.debug_frame
  17              		.global	__aeabi_uidiv
  18              		.section	.text.HAL_InitTick,"ax",%progbits
  19              		.align	1
  20              		.global	HAL_InitTick
  21              		.syntax unified
  22              		.code	16
  23              		.thumb_func
  25              	HAL_InitTick:
  26              	.LVL0:
  27              	.LFB47:
  28              		.file 1 "Core/Src/stm32l0xx_hal_timebase_tim.c"
   1:Core/Src/stm32l0xx_hal_timebase_tim.c **** /* USER CODE BEGIN Header */
   2:Core/Src/stm32l0xx_hal_timebase_tim.c **** /**
   3:Core/Src/stm32l0xx_hal_timebase_tim.c ****   ******************************************************************************
   4:Core/Src/stm32l0xx_hal_timebase_tim.c ****   * @file    stm32l0xx_hal_timebase_TIM.c
   5:Core/Src/stm32l0xx_hal_timebase_tim.c ****   * @brief   HAL time base based on the hardware TIM.
   6:Core/Src/stm32l0xx_hal_timebase_tim.c ****   ******************************************************************************
   7:Core/Src/stm32l0xx_hal_timebase_tim.c ****   * @attention
   8:Core/Src/stm32l0xx_hal_timebase_tim.c ****   *
   9:Core/Src/stm32l0xx_hal_timebase_tim.c ****   * Copyright (c) 2023 STMicroelectronics.
  10:Core/Src/stm32l0xx_hal_timebase_tim.c ****   * All rights reserved.
  11:Core/Src/stm32l0xx_hal_timebase_tim.c ****   *
  12:Core/Src/stm32l0xx_hal_timebase_tim.c ****   * This software is licensed under terms that can be found in the LICENSE file
  13:Core/Src/stm32l0xx_hal_timebase_tim.c ****   * in the root directory of this software component.
  14:Core/Src/stm32l0xx_hal_timebase_tim.c ****   * If no LICENSE file comes with this software, it is provided AS-IS.
  15:Core/Src/stm32l0xx_hal_timebase_tim.c ****   *
  16:Core/Src/stm32l0xx_hal_timebase_tim.c ****   ******************************************************************************
  17:Core/Src/stm32l0xx_hal_timebase_tim.c ****   */
  18:Core/Src/stm32l0xx_hal_timebase_tim.c **** /* USER CODE END Header */
  19:Core/Src/stm32l0xx_hal_timebase_tim.c **** 
  20:Core/Src/stm32l0xx_hal_timebase_tim.c **** /* Includes ------------------------------------------------------------------*/
  21:Core/Src/stm32l0xx_hal_timebase_tim.c **** #include "stm32l0xx_hal.h"
  22:Core/Src/stm32l0xx_hal_timebase_tim.c **** #include "stm32l0xx_hal_tim.h"
  23:Core/Src/stm32l0xx_hal_timebase_tim.c **** 
  24:Core/Src/stm32l0xx_hal_timebase_tim.c **** /* Private typedef -----------------------------------------------------------*/
  25:Core/Src/stm32l0xx_hal_timebase_tim.c **** /* Private define ------------------------------------------------------------*/
  26:Core/Src/stm32l0xx_hal_timebase_tim.c **** /* Private macro -------------------------------------------------------------*/
  27:Core/Src/stm32l0xx_hal_timebase_tim.c **** /* Private variables ---------------------------------------------------------*/
  28:Core/Src/stm32l0xx_hal_timebase_tim.c **** TIM_HandleTypeDef        htim6;
  29:Core/Src/stm32l0xx_hal_timebase_tim.c **** /* Private function prototypes -----------------------------------------------*/
  30:Core/Src/stm32l0xx_hal_timebase_tim.c **** /* Private functions ---------------------------------------------------------*/
ARM GAS  /tmp/ccF3Fkuv.s 			page 2


  31:Core/Src/stm32l0xx_hal_timebase_tim.c **** 
  32:Core/Src/stm32l0xx_hal_timebase_tim.c **** /**
  33:Core/Src/stm32l0xx_hal_timebase_tim.c ****   * @brief  This function configures the TIM6 as a time base source.
  34:Core/Src/stm32l0xx_hal_timebase_tim.c ****   *         The time source is configured  to have 1ms time base with a dedicated
  35:Core/Src/stm32l0xx_hal_timebase_tim.c ****   *         Tick interrupt priority.
  36:Core/Src/stm32l0xx_hal_timebase_tim.c ****   * @note   This function is called  automatically at the beginning of program after
  37:Core/Src/stm32l0xx_hal_timebase_tim.c ****   *         reset by HAL_Init() or at any time when clock is configured, by HAL_RCC_ClockConfig().
  38:Core/Src/stm32l0xx_hal_timebase_tim.c ****   * @param  TickPriority: Tick interrupt priority.
  39:Core/Src/stm32l0xx_hal_timebase_tim.c ****   * @retval HAL status
  40:Core/Src/stm32l0xx_hal_timebase_tim.c ****   */
  41:Core/Src/stm32l0xx_hal_timebase_tim.c **** HAL_StatusTypeDef HAL_InitTick(uint32_t TickPriority)
  42:Core/Src/stm32l0xx_hal_timebase_tim.c **** {
  29              		.loc 1 42 1 view -0
  30              		.cfi_startproc
  31              		@ args = 0, pretend = 0, frame = 24
  32              		@ frame_needed = 0, uses_anonymous_args = 0
  33              		.loc 1 42 1 is_stmt 0 view .LVU1
  34 0000 30B5     		push	{r4, r5, lr}
  35              	.LCFI0:
  36              		.cfi_def_cfa_offset 12
  37              		.cfi_offset 4, -12
  38              		.cfi_offset 5, -8
  39              		.cfi_offset 14, -4
  40 0002 87B0     		sub	sp, sp, #28
  41              	.LCFI1:
  42              		.cfi_def_cfa_offset 40
  43 0004 0500     		movs	r5, r0
  43:Core/Src/stm32l0xx_hal_timebase_tim.c ****   RCC_ClkInitTypeDef    clkconfig;
  44              		.loc 1 43 3 is_stmt 1 view .LVU2
  44:Core/Src/stm32l0xx_hal_timebase_tim.c ****   uint32_t              uwTimclock, uwAPB1Prescaler;
  45              		.loc 1 44 3 view .LVU3
  45:Core/Src/stm32l0xx_hal_timebase_tim.c **** 
  46:Core/Src/stm32l0xx_hal_timebase_tim.c ****   uint32_t              uwPrescalerValue;
  46              		.loc 1 46 3 view .LVU4
  47:Core/Src/stm32l0xx_hal_timebase_tim.c ****   uint32_t              pFLatency;
  47              		.loc 1 47 3 view .LVU5
  48:Core/Src/stm32l0xx_hal_timebase_tim.c ****   HAL_StatusTypeDef     status;
  48              		.loc 1 48 3 view .LVU6
  49:Core/Src/stm32l0xx_hal_timebase_tim.c ****   /*Configure the TIM6 IRQ priority */
  50:Core/Src/stm32l0xx_hal_timebase_tim.c ****   HAL_NVIC_SetPriority(TIM6_DAC_IRQn, TickPriority ,0);
  49              		.loc 1 50 3 view .LVU7
  50 0006 0022     		movs	r2, #0
  51 0008 0100     		movs	r1, r0
  52 000a 1120     		movs	r0, #17
  53              	.LVL1:
  54              		.loc 1 50 3 is_stmt 0 view .LVU8
  55 000c FFF7FEFF 		bl	HAL_NVIC_SetPriority
  56              	.LVL2:
  51:Core/Src/stm32l0xx_hal_timebase_tim.c **** 
  52:Core/Src/stm32l0xx_hal_timebase_tim.c ****   /* Enable the TIM6 global Interrupt */
  53:Core/Src/stm32l0xx_hal_timebase_tim.c ****   HAL_NVIC_EnableIRQ(TIM6_DAC_IRQn);
  57              		.loc 1 53 3 is_stmt 1 view .LVU9
  58 0010 1120     		movs	r0, #17
  59 0012 FFF7FEFF 		bl	HAL_NVIC_EnableIRQ
  60              	.LVL3:
  54:Core/Src/stm32l0xx_hal_timebase_tim.c **** 
  55:Core/Src/stm32l0xx_hal_timebase_tim.c ****   /* Enable TIM6 clock */
ARM GAS  /tmp/ccF3Fkuv.s 			page 3


  56:Core/Src/stm32l0xx_hal_timebase_tim.c ****   __HAL_RCC_TIM6_CLK_ENABLE();
  61              		.loc 1 56 3 view .LVU10
  62 0016 1B4A     		ldr	r2, .L8
  63 0018 936B     		ldr	r3, [r2, #56]
  64 001a 1021     		movs	r1, #16
  65 001c 0B43     		orrs	r3, r1
  66 001e 9363     		str	r3, [r2, #56]
  57:Core/Src/stm32l0xx_hal_timebase_tim.c **** 
  58:Core/Src/stm32l0xx_hal_timebase_tim.c ****   /* Get clock configuration */
  59:Core/Src/stm32l0xx_hal_timebase_tim.c ****   HAL_RCC_GetClockConfig(&clkconfig, &pFLatency);
  67              		.loc 1 59 3 view .LVU11
  68 0020 6946     		mov	r1, sp
  69 0022 01A8     		add	r0, sp, #4
  70 0024 FFF7FEFF 		bl	HAL_RCC_GetClockConfig
  71              	.LVL4:
  60:Core/Src/stm32l0xx_hal_timebase_tim.c **** 
  61:Core/Src/stm32l0xx_hal_timebase_tim.c ****   /* Get APB1 prescaler */
  62:Core/Src/stm32l0xx_hal_timebase_tim.c ****   uwAPB1Prescaler = clkconfig.APB1CLKDivider;
  72              		.loc 1 62 3 view .LVU12
  73              		.loc 1 62 19 is_stmt 0 view .LVU13
  74 0028 049B     		ldr	r3, [sp, #16]
  75              	.LVL5:
  63:Core/Src/stm32l0xx_hal_timebase_tim.c ****   /* Compute TIM6 clock */
  64:Core/Src/stm32l0xx_hal_timebase_tim.c ****   if (uwAPB1Prescaler == RCC_HCLK_DIV1)
  76              		.loc 1 64 3 is_stmt 1 view .LVU14
  77              		.loc 1 64 6 is_stmt 0 view .LVU15
  78 002a 002B     		cmp	r3, #0
  79 002c 15D1     		bne	.L2
  65:Core/Src/stm32l0xx_hal_timebase_tim.c ****   {
  66:Core/Src/stm32l0xx_hal_timebase_tim.c ****     uwTimclock = HAL_RCC_GetPCLK1Freq();
  80              		.loc 1 66 5 is_stmt 1 view .LVU16
  81              		.loc 1 66 18 is_stmt 0 view .LVU17
  82 002e FFF7FEFF 		bl	HAL_RCC_GetPCLK1Freq
  83              	.LVL6:
  84              	.L3:
  67:Core/Src/stm32l0xx_hal_timebase_tim.c ****   }
  68:Core/Src/stm32l0xx_hal_timebase_tim.c ****   else
  69:Core/Src/stm32l0xx_hal_timebase_tim.c ****   {
  70:Core/Src/stm32l0xx_hal_timebase_tim.c ****     uwTimclock = 2UL * HAL_RCC_GetPCLK1Freq();
  71:Core/Src/stm32l0xx_hal_timebase_tim.c ****   }
  72:Core/Src/stm32l0xx_hal_timebase_tim.c **** 
  73:Core/Src/stm32l0xx_hal_timebase_tim.c ****   /* Compute the prescaler value to have TIM6 counter clock equal to 1MHz */
  74:Core/Src/stm32l0xx_hal_timebase_tim.c ****   uwPrescalerValue = (uint32_t) ((uwTimclock / 1000000U) - 1U);
  85              		.loc 1 74 3 is_stmt 1 view .LVU18
  86              		.loc 1 74 46 is_stmt 0 view .LVU19
  87 0032 1549     		ldr	r1, .L8+4
  88 0034 FFF7FEFF 		bl	__aeabi_uidiv
  89              	.LVL7:
  90              		.loc 1 74 20 view .LVU20
  91 0038 431E     		subs	r3, r0, #1
  92              	.LVL8:
  75:Core/Src/stm32l0xx_hal_timebase_tim.c **** 
  76:Core/Src/stm32l0xx_hal_timebase_tim.c ****   /* Initialize TIM6 */
  77:Core/Src/stm32l0xx_hal_timebase_tim.c ****   htim6.Instance = TIM6;
  93              		.loc 1 77 3 is_stmt 1 view .LVU21
  94              		.loc 1 77 18 is_stmt 0 view .LVU22
  95 003a 1448     		ldr	r0, .L8+8
ARM GAS  /tmp/ccF3Fkuv.s 			page 4


  96 003c 144A     		ldr	r2, .L8+12
  97 003e 0260     		str	r2, [r0]
  78:Core/Src/stm32l0xx_hal_timebase_tim.c **** 
  79:Core/Src/stm32l0xx_hal_timebase_tim.c ****   /* Initialize TIMx peripheral as follow:
  80:Core/Src/stm32l0xx_hal_timebase_tim.c ****   + Period = [(TIM6CLK/1000) - 1]. to have a (1/1000) s time base.
  81:Core/Src/stm32l0xx_hal_timebase_tim.c ****   + Prescaler = (uwTimclock/1000000 - 1) to have a 1MHz counter clock.
  82:Core/Src/stm32l0xx_hal_timebase_tim.c ****   + ClockDivision = 0
  83:Core/Src/stm32l0xx_hal_timebase_tim.c ****   + Counter direction = Up
  84:Core/Src/stm32l0xx_hal_timebase_tim.c ****   */
  85:Core/Src/stm32l0xx_hal_timebase_tim.c ****   htim6.Init.Period = (1000000U / 1000U) - 1U;
  98              		.loc 1 85 3 is_stmt 1 view .LVU23
  99              		.loc 1 85 21 is_stmt 0 view .LVU24
 100 0040 144A     		ldr	r2, .L8+16
 101 0042 C260     		str	r2, [r0, #12]
  86:Core/Src/stm32l0xx_hal_timebase_tim.c ****   htim6.Init.Prescaler = uwPrescalerValue;
 102              		.loc 1 86 3 is_stmt 1 view .LVU25
 103              		.loc 1 86 24 is_stmt 0 view .LVU26
 104 0044 4360     		str	r3, [r0, #4]
  87:Core/Src/stm32l0xx_hal_timebase_tim.c ****   htim6.Init.ClockDivision = 0;
 105              		.loc 1 87 3 is_stmt 1 view .LVU27
 106              		.loc 1 87 28 is_stmt 0 view .LVU28
 107 0046 0023     		movs	r3, #0
 108              	.LVL9:
 109              		.loc 1 87 28 view .LVU29
 110 0048 0361     		str	r3, [r0, #16]
  88:Core/Src/stm32l0xx_hal_timebase_tim.c ****   htim6.Init.CounterMode = TIM_COUNTERMODE_UP;
 111              		.loc 1 88 3 is_stmt 1 view .LVU30
 112              		.loc 1 88 26 is_stmt 0 view .LVU31
 113 004a 8360     		str	r3, [r0, #8]
  89:Core/Src/stm32l0xx_hal_timebase_tim.c **** 
  90:Core/Src/stm32l0xx_hal_timebase_tim.c ****   status = HAL_TIM_Base_Init(&htim6);
 114              		.loc 1 90 3 is_stmt 1 view .LVU32
 115              		.loc 1 90 12 is_stmt 0 view .LVU33
 116 004c FFF7FEFF 		bl	HAL_TIM_Base_Init
 117              	.LVL10:
 118              		.loc 1 90 12 view .LVU34
 119 0050 041E     		subs	r4, r0, #0
 120              	.LVL11:
  91:Core/Src/stm32l0xx_hal_timebase_tim.c ****   if (status == HAL_OK)
 121              		.loc 1 91 3 is_stmt 1 view .LVU35
 122              		.loc 1 91 6 is_stmt 0 view .LVU36
 123 0052 06D0     		beq	.L6
 124              	.LVL12:
 125              	.L4:
  92:Core/Src/stm32l0xx_hal_timebase_tim.c ****   {
  93:Core/Src/stm32l0xx_hal_timebase_tim.c ****     /* Start the TIM time Base generation in interrupt mode */
  94:Core/Src/stm32l0xx_hal_timebase_tim.c ****     status = HAL_TIM_Base_Start_IT(&htim6);
  95:Core/Src/stm32l0xx_hal_timebase_tim.c ****     if (status == HAL_OK)
  96:Core/Src/stm32l0xx_hal_timebase_tim.c ****     {
  97:Core/Src/stm32l0xx_hal_timebase_tim.c ****       if (TickPriority < (1UL << __NVIC_PRIO_BITS))
  98:Core/Src/stm32l0xx_hal_timebase_tim.c ****       {
  99:Core/Src/stm32l0xx_hal_timebase_tim.c ****         /* Configure the TIM IRQ priority */
 100:Core/Src/stm32l0xx_hal_timebase_tim.c ****         HAL_NVIC_SetPriority(TIM6_DAC_IRQn, TickPriority, 0U);
 101:Core/Src/stm32l0xx_hal_timebase_tim.c ****         uwTickPrio = TickPriority;
 102:Core/Src/stm32l0xx_hal_timebase_tim.c ****       }
 103:Core/Src/stm32l0xx_hal_timebase_tim.c ****       else
 104:Core/Src/stm32l0xx_hal_timebase_tim.c ****       {
ARM GAS  /tmp/ccF3Fkuv.s 			page 5


 105:Core/Src/stm32l0xx_hal_timebase_tim.c ****         status = HAL_ERROR;
 106:Core/Src/stm32l0xx_hal_timebase_tim.c ****       }
 107:Core/Src/stm32l0xx_hal_timebase_tim.c ****     }
 108:Core/Src/stm32l0xx_hal_timebase_tim.c ****   }
 109:Core/Src/stm32l0xx_hal_timebase_tim.c **** 
 110:Core/Src/stm32l0xx_hal_timebase_tim.c ****  /* Return function status */
 111:Core/Src/stm32l0xx_hal_timebase_tim.c ****   return status;
 126              		.loc 1 111 3 is_stmt 1 view .LVU37
 112:Core/Src/stm32l0xx_hal_timebase_tim.c **** }
 127              		.loc 1 112 1 is_stmt 0 view .LVU38
 128 0054 2000     		movs	r0, r4
 129 0056 07B0     		add	sp, sp, #28
 130              		@ sp needed
 131              	.LVL13:
 132              	.LVL14:
 133              		.loc 1 112 1 view .LVU39
 134 0058 30BD     		pop	{r4, r5, pc}
 135              	.LVL15:
 136              	.L2:
  70:Core/Src/stm32l0xx_hal_timebase_tim.c ****   }
 137              		.loc 1 70 5 is_stmt 1 view .LVU40
  70:Core/Src/stm32l0xx_hal_timebase_tim.c ****   }
 138              		.loc 1 70 24 is_stmt 0 view .LVU41
 139 005a FFF7FEFF 		bl	HAL_RCC_GetPCLK1Freq
 140              	.LVL16:
  70:Core/Src/stm32l0xx_hal_timebase_tim.c ****   }
 141              		.loc 1 70 16 view .LVU42
 142 005e 4000     		lsls	r0, r0, #1
 143              	.LVL17:
  70:Core/Src/stm32l0xx_hal_timebase_tim.c ****   }
 144              		.loc 1 70 16 view .LVU43
 145 0060 E7E7     		b	.L3
 146              	.LVL18:
 147              	.L6:
  94:Core/Src/stm32l0xx_hal_timebase_tim.c ****     if (status == HAL_OK)
 148              		.loc 1 94 5 is_stmt 1 view .LVU44
  94:Core/Src/stm32l0xx_hal_timebase_tim.c ****     if (status == HAL_OK)
 149              		.loc 1 94 14 is_stmt 0 view .LVU45
 150 0062 0A48     		ldr	r0, .L8+8
 151              	.LVL19:
  94:Core/Src/stm32l0xx_hal_timebase_tim.c ****     if (status == HAL_OK)
 152              		.loc 1 94 14 view .LVU46
 153 0064 FFF7FEFF 		bl	HAL_TIM_Base_Start_IT
 154              	.LVL20:
 155 0068 041E     		subs	r4, r0, #0
 156              	.LVL21:
  95:Core/Src/stm32l0xx_hal_timebase_tim.c ****     {
 157              		.loc 1 95 5 is_stmt 1 view .LVU47
  95:Core/Src/stm32l0xx_hal_timebase_tim.c ****     {
 158              		.loc 1 95 8 is_stmt 0 view .LVU48
 159 006a F3D1     		bne	.L4
  97:Core/Src/stm32l0xx_hal_timebase_tim.c ****       {
 160              		.loc 1 97 7 is_stmt 1 view .LVU49
  97:Core/Src/stm32l0xx_hal_timebase_tim.c ****       {
 161              		.loc 1 97 10 is_stmt 0 view .LVU50
 162 006c 032D     		cmp	r5, #3
 163 006e 01D9     		bls	.L7
ARM GAS  /tmp/ccF3Fkuv.s 			page 6


 105:Core/Src/stm32l0xx_hal_timebase_tim.c ****       }
 164              		.loc 1 105 16 view .LVU51
 165 0070 0124     		movs	r4, #1
 166 0072 EFE7     		b	.L4
 167              	.L7:
 100:Core/Src/stm32l0xx_hal_timebase_tim.c ****         uwTickPrio = TickPriority;
 168              		.loc 1 100 9 is_stmt 1 view .LVU52
 169 0074 0022     		movs	r2, #0
 170 0076 2900     		movs	r1, r5
 171 0078 1120     		movs	r0, #17
 172              	.LVL22:
 100:Core/Src/stm32l0xx_hal_timebase_tim.c ****         uwTickPrio = TickPriority;
 173              		.loc 1 100 9 is_stmt 0 view .LVU53
 174 007a FFF7FEFF 		bl	HAL_NVIC_SetPriority
 175              	.LVL23:
 101:Core/Src/stm32l0xx_hal_timebase_tim.c ****       }
 176              		.loc 1 101 9 is_stmt 1 view .LVU54
 101:Core/Src/stm32l0xx_hal_timebase_tim.c ****       }
 177              		.loc 1 101 20 is_stmt 0 view .LVU55
 178 007e 064B     		ldr	r3, .L8+20
 179 0080 1D60     		str	r5, [r3]
 180 0082 E7E7     		b	.L4
 181              	.L9:
 182              		.align	2
 183              	.L8:
 184 0084 00100240 		.word	1073876992
 185 0088 40420F00 		.word	1000000
 186 008c 00000000 		.word	.LANCHOR0
 187 0090 00100040 		.word	1073745920
 188 0094 E7030000 		.word	999
 189 0098 00000000 		.word	uwTickPrio
 190              		.cfi_endproc
 191              	.LFE47:
 193              		.section	.text.HAL_SuspendTick,"ax",%progbits
 194              		.align	1
 195              		.global	HAL_SuspendTick
 196              		.syntax unified
 197              		.code	16
 198              		.thumb_func
 200              	HAL_SuspendTick:
 201              	.LFB48:
 113:Core/Src/stm32l0xx_hal_timebase_tim.c **** 
 114:Core/Src/stm32l0xx_hal_timebase_tim.c **** /**
 115:Core/Src/stm32l0xx_hal_timebase_tim.c ****   * @brief  Suspend Tick increment.
 116:Core/Src/stm32l0xx_hal_timebase_tim.c ****   * @note   Disable the tick increment by disabling TIM6 update interrupt.
 117:Core/Src/stm32l0xx_hal_timebase_tim.c ****   * @param  None
 118:Core/Src/stm32l0xx_hal_timebase_tim.c ****   * @retval None
 119:Core/Src/stm32l0xx_hal_timebase_tim.c ****   */
 120:Core/Src/stm32l0xx_hal_timebase_tim.c **** void HAL_SuspendTick(void)
 121:Core/Src/stm32l0xx_hal_timebase_tim.c **** {
 202              		.loc 1 121 1 is_stmt 1 view -0
 203              		.cfi_startproc
 204              		@ args = 0, pretend = 0, frame = 0
 205              		@ frame_needed = 0, uses_anonymous_args = 0
 206              		@ link register save eliminated.
 122:Core/Src/stm32l0xx_hal_timebase_tim.c ****   /* Disable TIM6 update Interrupt */
 123:Core/Src/stm32l0xx_hal_timebase_tim.c ****   __HAL_TIM_DISABLE_IT(&htim6, TIM_IT_UPDATE);
ARM GAS  /tmp/ccF3Fkuv.s 			page 7


 207              		.loc 1 123 3 view .LVU57
 208 0000 034B     		ldr	r3, .L11
 209 0002 1A68     		ldr	r2, [r3]
 210 0004 D368     		ldr	r3, [r2, #12]
 211 0006 0121     		movs	r1, #1
 212 0008 8B43     		bics	r3, r1
 213 000a D360     		str	r3, [r2, #12]
 124:Core/Src/stm32l0xx_hal_timebase_tim.c **** }
 214              		.loc 1 124 1 is_stmt 0 view .LVU58
 215              		@ sp needed
 216 000c 7047     		bx	lr
 217              	.L12:
 218 000e C046     		.align	2
 219              	.L11:
 220 0010 00000000 		.word	.LANCHOR0
 221              		.cfi_endproc
 222              	.LFE48:
 224              		.section	.text.HAL_ResumeTick,"ax",%progbits
 225              		.align	1
 226              		.global	HAL_ResumeTick
 227              		.syntax unified
 228              		.code	16
 229              		.thumb_func
 231              	HAL_ResumeTick:
 232              	.LFB49:
 125:Core/Src/stm32l0xx_hal_timebase_tim.c **** 
 126:Core/Src/stm32l0xx_hal_timebase_tim.c **** /**
 127:Core/Src/stm32l0xx_hal_timebase_tim.c ****   * @brief  Resume Tick increment.
 128:Core/Src/stm32l0xx_hal_timebase_tim.c ****   * @note   Enable the tick increment by Enabling TIM6 update interrupt.
 129:Core/Src/stm32l0xx_hal_timebase_tim.c ****   * @param  None
 130:Core/Src/stm32l0xx_hal_timebase_tim.c ****   * @retval None
 131:Core/Src/stm32l0xx_hal_timebase_tim.c ****   */
 132:Core/Src/stm32l0xx_hal_timebase_tim.c **** void HAL_ResumeTick(void)
 133:Core/Src/stm32l0xx_hal_timebase_tim.c **** {
 233              		.loc 1 133 1 is_stmt 1 view -0
 234              		.cfi_startproc
 235              		@ args = 0, pretend = 0, frame = 0
 236              		@ frame_needed = 0, uses_anonymous_args = 0
 237              		@ link register save eliminated.
 134:Core/Src/stm32l0xx_hal_timebase_tim.c ****   /* Enable TIM6 Update interrupt */
 135:Core/Src/stm32l0xx_hal_timebase_tim.c ****   __HAL_TIM_ENABLE_IT(&htim6, TIM_IT_UPDATE);
 238              		.loc 1 135 3 view .LVU60
 239 0000 034B     		ldr	r3, .L14
 240 0002 1A68     		ldr	r2, [r3]
 241 0004 D368     		ldr	r3, [r2, #12]
 242 0006 0121     		movs	r1, #1
 243 0008 0B43     		orrs	r3, r1
 244 000a D360     		str	r3, [r2, #12]
 136:Core/Src/stm32l0xx_hal_timebase_tim.c **** }
 245              		.loc 1 136 1 is_stmt 0 view .LVU61
 246              		@ sp needed
 247 000c 7047     		bx	lr
 248              	.L15:
 249 000e C046     		.align	2
 250              	.L14:
 251 0010 00000000 		.word	.LANCHOR0
 252              		.cfi_endproc
ARM GAS  /tmp/ccF3Fkuv.s 			page 8


 253              	.LFE49:
 255              		.global	htim6
 256              		.section	.bss.htim6,"aw",%nobits
 257              		.align	2
 258              		.set	.LANCHOR0,. + 0
 261              	htim6:
 262 0000 00000000 		.space	64
 262      00000000 
 262      00000000 
 262      00000000 
 262      00000000 
 263              		.text
 264              	.Letext0:
 265              		.file 2 "/opt/gcc-arm-none-eabi-10.3-2021.10/arm-none-eabi/include/machine/_default_types.h"
 266              		.file 3 "/opt/gcc-arm-none-eabi-10.3-2021.10/arm-none-eabi/include/sys/_stdint.h"
 267              		.file 4 "Drivers/CMSIS/Device/ST/STM32L0xx/Include/stm32l051xx.h"
 268              		.file 5 "Drivers/STM32L0xx_HAL_Driver/Inc/stm32l0xx_hal_def.h"
 269              		.file 6 "Drivers/STM32L0xx_HAL_Driver/Inc/stm32l0xx_hal_rcc.h"
 270              		.file 7 "Drivers/STM32L0xx_HAL_Driver/Inc/stm32l0xx_hal_dma.h"
 271              		.file 8 "Drivers/STM32L0xx_HAL_Driver/Inc/stm32l0xx_hal_tim.h"
 272              		.file 9 "Drivers/STM32L0xx_HAL_Driver/Inc/stm32l0xx_hal.h"
 273              		.file 10 "Drivers/STM32L0xx_HAL_Driver/Inc/stm32l0xx_hal_cortex.h"
ARM GAS  /tmp/ccF3Fkuv.s 			page 9

