ARM GAS  /tmp/ccbnVyb0.s 			page 1


   1              		.cpu cortex-m0plus
   2              		.arch armv6s-m
   3              		.fpu softvfp
   4              		.eabi_attribute 20, 1
   5              		.eabi_attribute 21, 1
   6              		.eabi_attribute 23, 3
   7              		.eabi_attribute 24, 1
   8              		.eabi_attribute 25, 1
   9              		.eabi_attribute 26, 1
  10              		.eabi_attribute 30, 1
  11              		.eabi_attribute 34, 0
  12              		.eabi_attribute 18, 4
  13              		.file	"stm32l0xx_hal_gpio.c"
  14              		.text
  15              	.Ltext0:
  16              		.cfi_sections	.debug_frame
  17              		.section	.text.HAL_GPIO_Init,"ax",%progbits
  18              		.align	1
  19              		.global	HAL_GPIO_Init
  20              		.syntax unified
  21              		.code	16
  22              		.thumb_func
  24              	HAL_GPIO_Init:
  25              	.LVL0:
  26              	.LFB47:
  27              		.file 1 "Drivers/STM32L0xx_HAL_Driver/Src/stm32l0xx_hal_gpio.c"
   1:Drivers/STM32L0xx_HAL_Driver/Src/stm32l0xx_hal_gpio.c **** /**
   2:Drivers/STM32L0xx_HAL_Driver/Src/stm32l0xx_hal_gpio.c ****   ******************************************************************************
   3:Drivers/STM32L0xx_HAL_Driver/Src/stm32l0xx_hal_gpio.c ****   * @file    stm32l0xx_hal_gpio.c
   4:Drivers/STM32L0xx_HAL_Driver/Src/stm32l0xx_hal_gpio.c ****   * @author  MCD Application Team
   5:Drivers/STM32L0xx_HAL_Driver/Src/stm32l0xx_hal_gpio.c ****   * @brief   GPIO HAL module driver.
   6:Drivers/STM32L0xx_HAL_Driver/Src/stm32l0xx_hal_gpio.c ****   *          This file provides firmware functions to manage the following
   7:Drivers/STM32L0xx_HAL_Driver/Src/stm32l0xx_hal_gpio.c ****   *          functionalities of the General Purpose Input/Output (GPIO) peripheral:
   8:Drivers/STM32L0xx_HAL_Driver/Src/stm32l0xx_hal_gpio.c ****   *           + Initialization and de-initialization functions
   9:Drivers/STM32L0xx_HAL_Driver/Src/stm32l0xx_hal_gpio.c ****   *           + IO operation functions
  10:Drivers/STM32L0xx_HAL_Driver/Src/stm32l0xx_hal_gpio.c ****   *
  11:Drivers/STM32L0xx_HAL_Driver/Src/stm32l0xx_hal_gpio.c ****   @verbatim
  12:Drivers/STM32L0xx_HAL_Driver/Src/stm32l0xx_hal_gpio.c ****   ==============================================================================
  13:Drivers/STM32L0xx_HAL_Driver/Src/stm32l0xx_hal_gpio.c ****                     ##### GPIO Peripheral features #####
  14:Drivers/STM32L0xx_HAL_Driver/Src/stm32l0xx_hal_gpio.c ****   ==============================================================================
  15:Drivers/STM32L0xx_HAL_Driver/Src/stm32l0xx_hal_gpio.c ****   [..]
  16:Drivers/STM32L0xx_HAL_Driver/Src/stm32l0xx_hal_gpio.c ****     (+) Each port bit of the general-purpose I/O (GPIO) ports can be individually
  17:Drivers/STM32L0xx_HAL_Driver/Src/stm32l0xx_hal_gpio.c ****   configured by software in several modes:
  18:Drivers/STM32L0xx_HAL_Driver/Src/stm32l0xx_hal_gpio.c ****         (++) Input mode
  19:Drivers/STM32L0xx_HAL_Driver/Src/stm32l0xx_hal_gpio.c ****         (++) Analog mode
  20:Drivers/STM32L0xx_HAL_Driver/Src/stm32l0xx_hal_gpio.c ****         (++) Output mode
  21:Drivers/STM32L0xx_HAL_Driver/Src/stm32l0xx_hal_gpio.c ****         (++) Alternate function mode
  22:Drivers/STM32L0xx_HAL_Driver/Src/stm32l0xx_hal_gpio.c ****         (++) External interrupt/event lines
  23:Drivers/STM32L0xx_HAL_Driver/Src/stm32l0xx_hal_gpio.c **** 
  24:Drivers/STM32L0xx_HAL_Driver/Src/stm32l0xx_hal_gpio.c ****     (+) During and just after reset, the alternate functions and external interrupt
  25:Drivers/STM32L0xx_HAL_Driver/Src/stm32l0xx_hal_gpio.c ****   lines are not active and the I/O ports are configured in input floating mode.
  26:Drivers/STM32L0xx_HAL_Driver/Src/stm32l0xx_hal_gpio.c **** 
  27:Drivers/STM32L0xx_HAL_Driver/Src/stm32l0xx_hal_gpio.c ****     (+) All GPIO pins have weak internal pull-up and pull-down resistors, which can be
  28:Drivers/STM32L0xx_HAL_Driver/Src/stm32l0xx_hal_gpio.c ****   activated or not.
  29:Drivers/STM32L0xx_HAL_Driver/Src/stm32l0xx_hal_gpio.c **** 
  30:Drivers/STM32L0xx_HAL_Driver/Src/stm32l0xx_hal_gpio.c ****     (+) In Output or Alternate mode, each IO can be configured on open-drain or push-pull
  31:Drivers/STM32L0xx_HAL_Driver/Src/stm32l0xx_hal_gpio.c ****   type and the IO speed can be selected depending on the VDD value.
ARM GAS  /tmp/ccbnVyb0.s 			page 2


  32:Drivers/STM32L0xx_HAL_Driver/Src/stm32l0xx_hal_gpio.c **** 
  33:Drivers/STM32L0xx_HAL_Driver/Src/stm32l0xx_hal_gpio.c ****     (+) The microcontroller IO pins are connected to onboard peripherals/modules through a
  34:Drivers/STM32L0xx_HAL_Driver/Src/stm32l0xx_hal_gpio.c ****         multiplexer that allows only one peripheral alternate function (AF) connected
  35:Drivers/STM32L0xx_HAL_Driver/Src/stm32l0xx_hal_gpio.c ****   to an IO pin at a time. In this way, there can be no conflict between peripherals
  36:Drivers/STM32L0xx_HAL_Driver/Src/stm32l0xx_hal_gpio.c ****   sharing the same IO pin.
  37:Drivers/STM32L0xx_HAL_Driver/Src/stm32l0xx_hal_gpio.c **** 
  38:Drivers/STM32L0xx_HAL_Driver/Src/stm32l0xx_hal_gpio.c ****     (+) All ports have external interrupt/event capability. To use external interrupt
  39:Drivers/STM32L0xx_HAL_Driver/Src/stm32l0xx_hal_gpio.c ****   lines, the port must be configured in input mode. All available GPIO pins are
  40:Drivers/STM32L0xx_HAL_Driver/Src/stm32l0xx_hal_gpio.c ****   connected to the 16 external interrupt/event lines from EXTI0 to EXTI15.
  41:Drivers/STM32L0xx_HAL_Driver/Src/stm32l0xx_hal_gpio.c **** 
  42:Drivers/STM32L0xx_HAL_Driver/Src/stm32l0xx_hal_gpio.c ****     (+) The external interrupt/event controller consists of up to 28 edge detectors
  43:Drivers/STM32L0xx_HAL_Driver/Src/stm32l0xx_hal_gpio.c ****   (16 lines are connected to GPIO) for generating event/interrupt requests (each
  44:Drivers/STM32L0xx_HAL_Driver/Src/stm32l0xx_hal_gpio.c ****   input line can be independently configured to select the type (interrupt or event)
  45:Drivers/STM32L0xx_HAL_Driver/Src/stm32l0xx_hal_gpio.c ****   and the corresponding trigger event (rising or falling or both). Each line can
  46:Drivers/STM32L0xx_HAL_Driver/Src/stm32l0xx_hal_gpio.c ****   also be masked independently.
  47:Drivers/STM32L0xx_HAL_Driver/Src/stm32l0xx_hal_gpio.c **** 
  48:Drivers/STM32L0xx_HAL_Driver/Src/stm32l0xx_hal_gpio.c ****                      ##### How to use this driver #####
  49:Drivers/STM32L0xx_HAL_Driver/Src/stm32l0xx_hal_gpio.c ****   ==============================================================================
  50:Drivers/STM32L0xx_HAL_Driver/Src/stm32l0xx_hal_gpio.c ****   [..]
  51:Drivers/STM32L0xx_HAL_Driver/Src/stm32l0xx_hal_gpio.c ****     (#) Enable the GPIO IOPORT clock using the following function: __HAL_RCC_GPIOx_CLK_ENABLE().
  52:Drivers/STM32L0xx_HAL_Driver/Src/stm32l0xx_hal_gpio.c **** 
  53:Drivers/STM32L0xx_HAL_Driver/Src/stm32l0xx_hal_gpio.c ****     (#) Configure the GPIO pin(s) using HAL_GPIO_Init().
  54:Drivers/STM32L0xx_HAL_Driver/Src/stm32l0xx_hal_gpio.c ****         (++) Configure the IO mode using "Mode" member from GPIO_InitTypeDef structure
  55:Drivers/STM32L0xx_HAL_Driver/Src/stm32l0xx_hal_gpio.c ****         (++) Activate Pull-up, Pull-down resistor using "Pull" member from GPIO_InitTypeDef
  56:Drivers/STM32L0xx_HAL_Driver/Src/stm32l0xx_hal_gpio.c ****              structure.
  57:Drivers/STM32L0xx_HAL_Driver/Src/stm32l0xx_hal_gpio.c ****         (++) In case of Output or alternate function mode selection: the speed is
  58:Drivers/STM32L0xx_HAL_Driver/Src/stm32l0xx_hal_gpio.c ****              configured through "Speed" member from GPIO_InitTypeDef structure.
  59:Drivers/STM32L0xx_HAL_Driver/Src/stm32l0xx_hal_gpio.c ****         (++) In alternate mode is selection, the alternate function connected to the IO
  60:Drivers/STM32L0xx_HAL_Driver/Src/stm32l0xx_hal_gpio.c ****              is configured through "Alternate" member from GPIO_InitTypeDef structure.
  61:Drivers/STM32L0xx_HAL_Driver/Src/stm32l0xx_hal_gpio.c ****         (++) Analog mode is required when a pin is to be used as ADC channel
  62:Drivers/STM32L0xx_HAL_Driver/Src/stm32l0xx_hal_gpio.c ****              or DAC output.
  63:Drivers/STM32L0xx_HAL_Driver/Src/stm32l0xx_hal_gpio.c ****         (++) In case of external interrupt/event selection the "Mode" member from
  64:Drivers/STM32L0xx_HAL_Driver/Src/stm32l0xx_hal_gpio.c ****              GPIO_InitTypeDef structure select the type (interrupt or event) and
  65:Drivers/STM32L0xx_HAL_Driver/Src/stm32l0xx_hal_gpio.c ****              the corresponding trigger event (rising or falling or both).
  66:Drivers/STM32L0xx_HAL_Driver/Src/stm32l0xx_hal_gpio.c **** 
  67:Drivers/STM32L0xx_HAL_Driver/Src/stm32l0xx_hal_gpio.c ****     (#) In case of external interrupt/event mode selection, configure NVIC IRQ priority
  68:Drivers/STM32L0xx_HAL_Driver/Src/stm32l0xx_hal_gpio.c ****         mapped to the EXTI line using HAL_NVIC_SetPriority() and enable it using
  69:Drivers/STM32L0xx_HAL_Driver/Src/stm32l0xx_hal_gpio.c ****         HAL_NVIC_EnableIRQ().
  70:Drivers/STM32L0xx_HAL_Driver/Src/stm32l0xx_hal_gpio.c **** 
  71:Drivers/STM32L0xx_HAL_Driver/Src/stm32l0xx_hal_gpio.c ****    (#) HAL_GPIO_DeInit allows to set register values to their reset value. This function
  72:Drivers/STM32L0xx_HAL_Driver/Src/stm32l0xx_hal_gpio.c ****        is also to be used when unconfiguring pin which was used as an external interrupt
  73:Drivers/STM32L0xx_HAL_Driver/Src/stm32l0xx_hal_gpio.c ****        or in event mode. That is the only way to reset the corresponding bit in
  74:Drivers/STM32L0xx_HAL_Driver/Src/stm32l0xx_hal_gpio.c ****        EXTI & SYSCFG registers.
  75:Drivers/STM32L0xx_HAL_Driver/Src/stm32l0xx_hal_gpio.c **** 
  76:Drivers/STM32L0xx_HAL_Driver/Src/stm32l0xx_hal_gpio.c ****     (#) To get the level of a pin configured in input mode use HAL_GPIO_ReadPin().
  77:Drivers/STM32L0xx_HAL_Driver/Src/stm32l0xx_hal_gpio.c **** 
  78:Drivers/STM32L0xx_HAL_Driver/Src/stm32l0xx_hal_gpio.c ****     (#) To set/reset the level of a pin configured in output mode use
  79:Drivers/STM32L0xx_HAL_Driver/Src/stm32l0xx_hal_gpio.c ****         HAL_GPIO_WritePin()/HAL_GPIO_TogglePin().
  80:Drivers/STM32L0xx_HAL_Driver/Src/stm32l0xx_hal_gpio.c **** 
  81:Drivers/STM32L0xx_HAL_Driver/Src/stm32l0xx_hal_gpio.c ****     (#) To lock pin configuration until next reset use HAL_GPIO_LockPin().
  82:Drivers/STM32L0xx_HAL_Driver/Src/stm32l0xx_hal_gpio.c **** 
  83:Drivers/STM32L0xx_HAL_Driver/Src/stm32l0xx_hal_gpio.c ****     (#) During and just after reset, the alternate functions are not
  84:Drivers/STM32L0xx_HAL_Driver/Src/stm32l0xx_hal_gpio.c ****         active and the GPIO pins are configured in input floating mode (except JTAG
  85:Drivers/STM32L0xx_HAL_Driver/Src/stm32l0xx_hal_gpio.c ****         pins).
  86:Drivers/STM32L0xx_HAL_Driver/Src/stm32l0xx_hal_gpio.c **** 
  87:Drivers/STM32L0xx_HAL_Driver/Src/stm32l0xx_hal_gpio.c ****     (#) The LSE oscillator pins OSC32_IN and OSC32_OUT can be used as general purpose
  88:Drivers/STM32L0xx_HAL_Driver/Src/stm32l0xx_hal_gpio.c ****         (PC14 and PC15, respectively) when the LSE oscillator is off. The LSE has
ARM GAS  /tmp/ccbnVyb0.s 			page 3


  89:Drivers/STM32L0xx_HAL_Driver/Src/stm32l0xx_hal_gpio.c ****         priority over the GPIO function.
  90:Drivers/STM32L0xx_HAL_Driver/Src/stm32l0xx_hal_gpio.c **** 
  91:Drivers/STM32L0xx_HAL_Driver/Src/stm32l0xx_hal_gpio.c ****     (#) The HSE oscillator pins OSC_IN/OSC_OUT can be used as
  92:Drivers/STM32L0xx_HAL_Driver/Src/stm32l0xx_hal_gpio.c ****         general purpose PH0 and PH1, respectively, when the HSE oscillator is off.
  93:Drivers/STM32L0xx_HAL_Driver/Src/stm32l0xx_hal_gpio.c ****         The HSE has priority over the GPIO function.
  94:Drivers/STM32L0xx_HAL_Driver/Src/stm32l0xx_hal_gpio.c **** 
  95:Drivers/STM32L0xx_HAL_Driver/Src/stm32l0xx_hal_gpio.c ****   @endverbatim
  96:Drivers/STM32L0xx_HAL_Driver/Src/stm32l0xx_hal_gpio.c ****   ******************************************************************************
  97:Drivers/STM32L0xx_HAL_Driver/Src/stm32l0xx_hal_gpio.c ****   * @attention
  98:Drivers/STM32L0xx_HAL_Driver/Src/stm32l0xx_hal_gpio.c ****   *
  99:Drivers/STM32L0xx_HAL_Driver/Src/stm32l0xx_hal_gpio.c ****   * <h2><center>&copy; Copyright(c) 2016 STMicroelectronics.
 100:Drivers/STM32L0xx_HAL_Driver/Src/stm32l0xx_hal_gpio.c ****   * All rights reserved.</center></h2>
 101:Drivers/STM32L0xx_HAL_Driver/Src/stm32l0xx_hal_gpio.c ****   *
 102:Drivers/STM32L0xx_HAL_Driver/Src/stm32l0xx_hal_gpio.c ****   * This software component is licensed by ST under BSD 3-Clause license,
 103:Drivers/STM32L0xx_HAL_Driver/Src/stm32l0xx_hal_gpio.c ****   * the "License"; You may not use this file except in compliance with the
 104:Drivers/STM32L0xx_HAL_Driver/Src/stm32l0xx_hal_gpio.c ****   * License. You may obtain a copy of the License at:
 105:Drivers/STM32L0xx_HAL_Driver/Src/stm32l0xx_hal_gpio.c ****   *                        opensource.org/licenses/BSD-3-Clause
 106:Drivers/STM32L0xx_HAL_Driver/Src/stm32l0xx_hal_gpio.c ****   *
 107:Drivers/STM32L0xx_HAL_Driver/Src/stm32l0xx_hal_gpio.c ****   ******************************************************************************
 108:Drivers/STM32L0xx_HAL_Driver/Src/stm32l0xx_hal_gpio.c ****   */
 109:Drivers/STM32L0xx_HAL_Driver/Src/stm32l0xx_hal_gpio.c **** 
 110:Drivers/STM32L0xx_HAL_Driver/Src/stm32l0xx_hal_gpio.c **** /* Includes ------------------------------------------------------------------*/
 111:Drivers/STM32L0xx_HAL_Driver/Src/stm32l0xx_hal_gpio.c **** #include "stm32l0xx_hal.h"
 112:Drivers/STM32L0xx_HAL_Driver/Src/stm32l0xx_hal_gpio.c **** 
 113:Drivers/STM32L0xx_HAL_Driver/Src/stm32l0xx_hal_gpio.c **** /** @addtogroup STM32L0xx_HAL_Driver
 114:Drivers/STM32L0xx_HAL_Driver/Src/stm32l0xx_hal_gpio.c ****   * @{
 115:Drivers/STM32L0xx_HAL_Driver/Src/stm32l0xx_hal_gpio.c ****   */
 116:Drivers/STM32L0xx_HAL_Driver/Src/stm32l0xx_hal_gpio.c **** 
 117:Drivers/STM32L0xx_HAL_Driver/Src/stm32l0xx_hal_gpio.c **** #ifdef HAL_GPIO_MODULE_ENABLED
 118:Drivers/STM32L0xx_HAL_Driver/Src/stm32l0xx_hal_gpio.c **** 
 119:Drivers/STM32L0xx_HAL_Driver/Src/stm32l0xx_hal_gpio.c **** /** @addtogroup GPIO
 120:Drivers/STM32L0xx_HAL_Driver/Src/stm32l0xx_hal_gpio.c ****   * @brief GPIO HAL module driver
 121:Drivers/STM32L0xx_HAL_Driver/Src/stm32l0xx_hal_gpio.c ****   * @{
 122:Drivers/STM32L0xx_HAL_Driver/Src/stm32l0xx_hal_gpio.c ****   */
 123:Drivers/STM32L0xx_HAL_Driver/Src/stm32l0xx_hal_gpio.c **** 
 124:Drivers/STM32L0xx_HAL_Driver/Src/stm32l0xx_hal_gpio.c **** /* Private define ------------------------------------------------------------*/
 125:Drivers/STM32L0xx_HAL_Driver/Src/stm32l0xx_hal_gpio.c **** /** @addtogroup GPIO_Private
 126:Drivers/STM32L0xx_HAL_Driver/Src/stm32l0xx_hal_gpio.c ****   * @{
 127:Drivers/STM32L0xx_HAL_Driver/Src/stm32l0xx_hal_gpio.c ****   */
 128:Drivers/STM32L0xx_HAL_Driver/Src/stm32l0xx_hal_gpio.c **** #define GPIO_NUMBER           (16U)
 129:Drivers/STM32L0xx_HAL_Driver/Src/stm32l0xx_hal_gpio.c **** /**
 130:Drivers/STM32L0xx_HAL_Driver/Src/stm32l0xx_hal_gpio.c ****   * @}
 131:Drivers/STM32L0xx_HAL_Driver/Src/stm32l0xx_hal_gpio.c ****   */
 132:Drivers/STM32L0xx_HAL_Driver/Src/stm32l0xx_hal_gpio.c **** /** @addtogroup GPIO_Exported_Functions
 133:Drivers/STM32L0xx_HAL_Driver/Src/stm32l0xx_hal_gpio.c ****   * @{
 134:Drivers/STM32L0xx_HAL_Driver/Src/stm32l0xx_hal_gpio.c ****   */
 135:Drivers/STM32L0xx_HAL_Driver/Src/stm32l0xx_hal_gpio.c **** 
 136:Drivers/STM32L0xx_HAL_Driver/Src/stm32l0xx_hal_gpio.c **** /** @addtogroup GPIO_Exported_Functions_Group1
 137:Drivers/STM32L0xx_HAL_Driver/Src/stm32l0xx_hal_gpio.c ****  *  @brief    Initialization and de-initialization functions
 138:Drivers/STM32L0xx_HAL_Driver/Src/stm32l0xx_hal_gpio.c ****  *
 139:Drivers/STM32L0xx_HAL_Driver/Src/stm32l0xx_hal_gpio.c **** @verbatim
 140:Drivers/STM32L0xx_HAL_Driver/Src/stm32l0xx_hal_gpio.c ****  ===============================================================================
 141:Drivers/STM32L0xx_HAL_Driver/Src/stm32l0xx_hal_gpio.c ****               ##### Initialization and de-initialization functions #####
 142:Drivers/STM32L0xx_HAL_Driver/Src/stm32l0xx_hal_gpio.c ****  ===============================================================================
 143:Drivers/STM32L0xx_HAL_Driver/Src/stm32l0xx_hal_gpio.c **** 
 144:Drivers/STM32L0xx_HAL_Driver/Src/stm32l0xx_hal_gpio.c **** @endverbatim
 145:Drivers/STM32L0xx_HAL_Driver/Src/stm32l0xx_hal_gpio.c ****   * @{
ARM GAS  /tmp/ccbnVyb0.s 			page 4


 146:Drivers/STM32L0xx_HAL_Driver/Src/stm32l0xx_hal_gpio.c ****   */
 147:Drivers/STM32L0xx_HAL_Driver/Src/stm32l0xx_hal_gpio.c **** 
 148:Drivers/STM32L0xx_HAL_Driver/Src/stm32l0xx_hal_gpio.c **** /**
 149:Drivers/STM32L0xx_HAL_Driver/Src/stm32l0xx_hal_gpio.c ****   * @brief  Initializes the GPIOx peripheral according to the specified parameters in the GPIO_Init
 150:Drivers/STM32L0xx_HAL_Driver/Src/stm32l0xx_hal_gpio.c ****   * @param  GPIOx where x can be (A..E and H) to select the GPIO peripheral for STM32L0XX family de
 151:Drivers/STM32L0xx_HAL_Driver/Src/stm32l0xx_hal_gpio.c ****   *                Note that GPIOE is not available on all devices.
 152:Drivers/STM32L0xx_HAL_Driver/Src/stm32l0xx_hal_gpio.c ****   * @param  GPIO_Init pointer to a GPIO_InitTypeDef structure that contains
 153:Drivers/STM32L0xx_HAL_Driver/Src/stm32l0xx_hal_gpio.c ****   *                    the configuration information for the specified GPIO peripheral.
 154:Drivers/STM32L0xx_HAL_Driver/Src/stm32l0xx_hal_gpio.c ****   * @retval None
 155:Drivers/STM32L0xx_HAL_Driver/Src/stm32l0xx_hal_gpio.c ****   */
 156:Drivers/STM32L0xx_HAL_Driver/Src/stm32l0xx_hal_gpio.c **** void HAL_GPIO_Init(GPIO_TypeDef  *GPIOx, GPIO_InitTypeDef *GPIO_Init)
 157:Drivers/STM32L0xx_HAL_Driver/Src/stm32l0xx_hal_gpio.c **** {
  28              		.loc 1 157 1 view -0
  29              		.cfi_startproc
  30              		@ args = 0, pretend = 0, frame = 0
  31              		@ frame_needed = 0, uses_anonymous_args = 0
  32              		.loc 1 157 1 is_stmt 0 view .LVU1
  33 0000 F0B5     		push	{r4, r5, r6, r7, lr}
  34              	.LCFI0:
  35              		.cfi_def_cfa_offset 20
  36              		.cfi_offset 4, -20
  37              		.cfi_offset 5, -16
  38              		.cfi_offset 6, -12
  39              		.cfi_offset 7, -8
  40              		.cfi_offset 14, -4
 158:Drivers/STM32L0xx_HAL_Driver/Src/stm32l0xx_hal_gpio.c ****   uint32_t position = 0x00U;
  41              		.loc 1 158 3 is_stmt 1 view .LVU2
  42              	.LVL1:
 159:Drivers/STM32L0xx_HAL_Driver/Src/stm32l0xx_hal_gpio.c ****   uint32_t iocurrent = 0x00U;
  43              		.loc 1 159 3 view .LVU3
 160:Drivers/STM32L0xx_HAL_Driver/Src/stm32l0xx_hal_gpio.c ****   uint32_t temp = 0x00U;
  44              		.loc 1 160 3 view .LVU4
 161:Drivers/STM32L0xx_HAL_Driver/Src/stm32l0xx_hal_gpio.c **** 
 162:Drivers/STM32L0xx_HAL_Driver/Src/stm32l0xx_hal_gpio.c ****   /* Check the parameters */
 163:Drivers/STM32L0xx_HAL_Driver/Src/stm32l0xx_hal_gpio.c ****   assert_param(IS_GPIO_MODE(GPIO_Init->Mode));
  45              		.loc 1 163 3 view .LVU5
 164:Drivers/STM32L0xx_HAL_Driver/Src/stm32l0xx_hal_gpio.c ****   assert_param(IS_GPIO_PIN_AVAILABLE(GPIOx, (GPIO_Init->Pin)));
  46              		.loc 1 164 3 view .LVU6
 165:Drivers/STM32L0xx_HAL_Driver/Src/stm32l0xx_hal_gpio.c **** 
 166:Drivers/STM32L0xx_HAL_Driver/Src/stm32l0xx_hal_gpio.c ****   /* Configure the port pins */
 167:Drivers/STM32L0xx_HAL_Driver/Src/stm32l0xx_hal_gpio.c ****   while (((GPIO_Init->Pin) >> position) != 0)
  47              		.loc 1 167 3 view .LVU7
 158:Drivers/STM32L0xx_HAL_Driver/Src/stm32l0xx_hal_gpio.c ****   uint32_t iocurrent = 0x00U;
  48              		.loc 1 158 12 is_stmt 0 view .LVU8
  49 0002 0023     		movs	r3, #0
  50              		.loc 1 167 9 view .LVU9
  51 0004 57E0     		b	.L2
  52              	.LVL2:
  53              	.L19:
 168:Drivers/STM32L0xx_HAL_Driver/Src/stm32l0xx_hal_gpio.c ****   {
 169:Drivers/STM32L0xx_HAL_Driver/Src/stm32l0xx_hal_gpio.c ****     /* Get the IO position */
 170:Drivers/STM32L0xx_HAL_Driver/Src/stm32l0xx_hal_gpio.c ****     iocurrent = (GPIO_Init->Pin) & (1U << position);
 171:Drivers/STM32L0xx_HAL_Driver/Src/stm32l0xx_hal_gpio.c **** 
 172:Drivers/STM32L0xx_HAL_Driver/Src/stm32l0xx_hal_gpio.c ****     if (iocurrent)
 173:Drivers/STM32L0xx_HAL_Driver/Src/stm32l0xx_hal_gpio.c ****     {
 174:Drivers/STM32L0xx_HAL_Driver/Src/stm32l0xx_hal_gpio.c ****       /*--------------------- GPIO Mode Configuration ------------------------*/
 175:Drivers/STM32L0xx_HAL_Driver/Src/stm32l0xx_hal_gpio.c ****       /* In case of Output or Alternate function mode selection */
ARM GAS  /tmp/ccbnVyb0.s 			page 5


 176:Drivers/STM32L0xx_HAL_Driver/Src/stm32l0xx_hal_gpio.c ****       if (((GPIO_Init->Mode & GPIO_MODE) == MODE_OUTPUT) ||
 177:Drivers/STM32L0xx_HAL_Driver/Src/stm32l0xx_hal_gpio.c ****           ((GPIO_Init->Mode & GPIO_MODE) == MODE_AF))
 178:Drivers/STM32L0xx_HAL_Driver/Src/stm32l0xx_hal_gpio.c ****       {
 179:Drivers/STM32L0xx_HAL_Driver/Src/stm32l0xx_hal_gpio.c ****         /* Check the Speed parameter */
 180:Drivers/STM32L0xx_HAL_Driver/Src/stm32l0xx_hal_gpio.c ****         assert_param(IS_GPIO_SPEED(GPIO_Init->Speed));
  54              		.loc 1 180 9 is_stmt 1 view .LVU10
 181:Drivers/STM32L0xx_HAL_Driver/Src/stm32l0xx_hal_gpio.c ****         /* Configure the IO Speed */
 182:Drivers/STM32L0xx_HAL_Driver/Src/stm32l0xx_hal_gpio.c ****         temp = GPIOx->OSPEEDR;
  55              		.loc 1 182 9 view .LVU11
  56              		.loc 1 182 14 is_stmt 0 view .LVU12
  57 0006 8468     		ldr	r4, [r0, #8]
  58              	.LVL3:
 183:Drivers/STM32L0xx_HAL_Driver/Src/stm32l0xx_hal_gpio.c ****         temp &= ~(GPIO_OSPEEDER_OSPEED0 << (position * 2U));
  59              		.loc 1 183 9 is_stmt 1 view .LVU13
  60              		.loc 1 183 54 is_stmt 0 view .LVU14
  61 0008 5F00     		lsls	r7, r3, #1
  62              		.loc 1 183 41 view .LVU15
  63 000a 0326     		movs	r6, #3
  64 000c BE40     		lsls	r6, r6, r7
  65              		.loc 1 183 14 view .LVU16
  66 000e B443     		bics	r4, r6
  67              	.LVL4:
  68              		.loc 1 183 14 view .LVU17
  69 0010 2600     		movs	r6, r4
  70              	.LVL5:
 184:Drivers/STM32L0xx_HAL_Driver/Src/stm32l0xx_hal_gpio.c ****         temp |= (GPIO_Init->Speed << (position * 2U));
  71              		.loc 1 184 9 is_stmt 1 view .LVU18
  72              		.loc 1 184 35 is_stmt 0 view .LVU19
  73 0012 CC68     		ldr	r4, [r1, #12]
  74              	.LVL6:
  75              		.loc 1 184 35 view .LVU20
  76 0014 BC40     		lsls	r4, r4, r7
  77              		.loc 1 184 14 view .LVU21
  78 0016 3443     		orrs	r4, r6
  79              	.LVL7:
 185:Drivers/STM32L0xx_HAL_Driver/Src/stm32l0xx_hal_gpio.c ****         GPIOx->OSPEEDR = temp;
  80              		.loc 1 185 9 is_stmt 1 view .LVU22
  81              		.loc 1 185 24 is_stmt 0 view .LVU23
  82 0018 8460     		str	r4, [r0, #8]
 186:Drivers/STM32L0xx_HAL_Driver/Src/stm32l0xx_hal_gpio.c **** 
 187:Drivers/STM32L0xx_HAL_Driver/Src/stm32l0xx_hal_gpio.c ****         /* Configure the IO Output Type */
 188:Drivers/STM32L0xx_HAL_Driver/Src/stm32l0xx_hal_gpio.c ****         temp = GPIOx->OTYPER;
  83              		.loc 1 188 9 is_stmt 1 view .LVU24
  84              		.loc 1 188 14 is_stmt 0 view .LVU25
  85 001a 4468     		ldr	r4, [r0, #4]
  86              	.LVL8:
 189:Drivers/STM32L0xx_HAL_Driver/Src/stm32l0xx_hal_gpio.c ****         temp &= ~(GPIO_OTYPER_OT_0 << position) ;
  87              		.loc 1 189 9 is_stmt 1 view .LVU26
  88              		.loc 1 189 14 is_stmt 0 view .LVU27
  89 001c 9443     		bics	r4, r2
  90              	.LVL9:
 190:Drivers/STM32L0xx_HAL_Driver/Src/stm32l0xx_hal_gpio.c ****         temp |= (((GPIO_Init->Mode & OUTPUT_TYPE) >> OUTPUT_TYPE_Pos) << position);
  91              		.loc 1 190 9 is_stmt 1 view .LVU28
  92              		.loc 1 190 51 is_stmt 0 view .LVU29
  93 001e 4A68     		ldr	r2, [r1, #4]
  94 0020 1609     		lsrs	r6, r2, #4
  95 0022 0122     		movs	r2, #1
ARM GAS  /tmp/ccbnVyb0.s 			page 6


  96 0024 3240     		ands	r2, r6
  97              		.loc 1 190 71 view .LVU30
  98 0026 9A40     		lsls	r2, r2, r3
  99              		.loc 1 190 14 view .LVU31
 100 0028 2243     		orrs	r2, r4
 101              	.LVL10:
 191:Drivers/STM32L0xx_HAL_Driver/Src/stm32l0xx_hal_gpio.c ****         GPIOx->OTYPER = temp;
 102              		.loc 1 191 9 is_stmt 1 view .LVU32
 103              		.loc 1 191 23 is_stmt 0 view .LVU33
 104 002a 4260     		str	r2, [r0, #4]
 105 002c 53E0     		b	.L4
 106              	.LVL11:
 107              	.L20:
 192:Drivers/STM32L0xx_HAL_Driver/Src/stm32l0xx_hal_gpio.c ****       }
 193:Drivers/STM32L0xx_HAL_Driver/Src/stm32l0xx_hal_gpio.c **** 
 194:Drivers/STM32L0xx_HAL_Driver/Src/stm32l0xx_hal_gpio.c ****       if ((GPIO_Init->Mode & GPIO_MODE) != MODE_ANALOG)
 195:Drivers/STM32L0xx_HAL_Driver/Src/stm32l0xx_hal_gpio.c ****       {
 196:Drivers/STM32L0xx_HAL_Driver/Src/stm32l0xx_hal_gpio.c ****         /* Check the Pull parameter */
 197:Drivers/STM32L0xx_HAL_Driver/Src/stm32l0xx_hal_gpio.c ****         assert_param(IS_GPIO_PULL(GPIO_Init->Pull));
 198:Drivers/STM32L0xx_HAL_Driver/Src/stm32l0xx_hal_gpio.c **** 
 199:Drivers/STM32L0xx_HAL_Driver/Src/stm32l0xx_hal_gpio.c ****         /* Activate the Pull-up or Pull down resistor for the current IO */
 200:Drivers/STM32L0xx_HAL_Driver/Src/stm32l0xx_hal_gpio.c ****         temp = GPIOx->PUPDR;
 201:Drivers/STM32L0xx_HAL_Driver/Src/stm32l0xx_hal_gpio.c ****         temp &= ~(GPIO_PUPDR_PUPD0 << (position * 2U));
 202:Drivers/STM32L0xx_HAL_Driver/Src/stm32l0xx_hal_gpio.c ****         temp |= ((GPIO_Init->Pull) << (position * 2U));
 203:Drivers/STM32L0xx_HAL_Driver/Src/stm32l0xx_hal_gpio.c ****         GPIOx->PUPDR = temp;
 204:Drivers/STM32L0xx_HAL_Driver/Src/stm32l0xx_hal_gpio.c ****       }
 205:Drivers/STM32L0xx_HAL_Driver/Src/stm32l0xx_hal_gpio.c **** 
 206:Drivers/STM32L0xx_HAL_Driver/Src/stm32l0xx_hal_gpio.c ****       /* In case of Alternate function mode selection */
 207:Drivers/STM32L0xx_HAL_Driver/Src/stm32l0xx_hal_gpio.c ****       if ((GPIO_Init->Mode & GPIO_MODE) == MODE_AF)
 208:Drivers/STM32L0xx_HAL_Driver/Src/stm32l0xx_hal_gpio.c ****       {
 209:Drivers/STM32L0xx_HAL_Driver/Src/stm32l0xx_hal_gpio.c ****         /* Check the Alternate function parameters */
 210:Drivers/STM32L0xx_HAL_Driver/Src/stm32l0xx_hal_gpio.c ****         assert_param(IS_GPIO_AF_INSTANCE(GPIOx));
 108              		.loc 1 210 9 is_stmt 1 view .LVU34
 211:Drivers/STM32L0xx_HAL_Driver/Src/stm32l0xx_hal_gpio.c ****         assert_param(IS_GPIO_AF(GPIO_Init->Alternate));
 109              		.loc 1 211 9 view .LVU35
 212:Drivers/STM32L0xx_HAL_Driver/Src/stm32l0xx_hal_gpio.c **** 
 213:Drivers/STM32L0xx_HAL_Driver/Src/stm32l0xx_hal_gpio.c ****         /* Configure Alternate function mapped with the current IO */
 214:Drivers/STM32L0xx_HAL_Driver/Src/stm32l0xx_hal_gpio.c ****         temp = GPIOx->AFR[position >> 3U];
 110              		.loc 1 214 9 view .LVU36
 111              		.loc 1 214 36 is_stmt 0 view .LVU37
 112 002e DC08     		lsrs	r4, r3, #3
 113              		.loc 1 214 14 view .LVU38
 114 0030 0834     		adds	r4, r4, #8
 115 0032 A400     		lsls	r4, r4, #2
 116 0034 2658     		ldr	r6, [r4, r0]
 117              	.LVL12:
 215:Drivers/STM32L0xx_HAL_Driver/Src/stm32l0xx_hal_gpio.c ****         temp &= ~(0xFUL << ((uint32_t)(position & 0x07UL) * 4U));
 118              		.loc 1 215 9 is_stmt 1 view .LVU39
 119              		.loc 1 215 29 is_stmt 0 view .LVU40
 120 0036 0532     		adds	r2, r2, #5
 121 0038 1A40     		ands	r2, r3
 122              		.loc 1 215 59 view .LVU41
 123 003a 9200     		lsls	r2, r2, #2
 124              		.loc 1 215 25 view .LVU42
 125 003c 0F27     		movs	r7, #15
 126 003e 9740     		lsls	r7, r7, r2
 127              		.loc 1 215 14 view .LVU43
ARM GAS  /tmp/ccbnVyb0.s 			page 7


 128 0040 BE43     		bics	r6, r7
 129              	.LVL13:
 216:Drivers/STM32L0xx_HAL_Driver/Src/stm32l0xx_hal_gpio.c ****         temp |= ((uint32_t)(GPIO_Init->Alternate) << (((uint32_t)position & (uint32_t)0x07U) * 4U))
 130              		.loc 1 216 9 is_stmt 1 view .LVU44
 131              		.loc 1 216 51 is_stmt 0 view .LVU45
 132 0042 0F69     		ldr	r7, [r1, #16]
 133 0044 9740     		lsls	r7, r7, r2
 134 0046 3A00     		movs	r2, r7
 135              		.loc 1 216 14 view .LVU46
 136 0048 3243     		orrs	r2, r6
 137              	.LVL14:
 217:Drivers/STM32L0xx_HAL_Driver/Src/stm32l0xx_hal_gpio.c ****         GPIOx->AFR[position >> 3U] = temp;
 138              		.loc 1 217 9 is_stmt 1 view .LVU47
 139              		.loc 1 217 36 is_stmt 0 view .LVU48
 140 004a 2250     		str	r2, [r4, r0]
 141 004c 57E0     		b	.L6
 142              	.LVL15:
 143              	.L21:
 218:Drivers/STM32L0xx_HAL_Driver/Src/stm32l0xx_hal_gpio.c ****       }
 219:Drivers/STM32L0xx_HAL_Driver/Src/stm32l0xx_hal_gpio.c **** 
 220:Drivers/STM32L0xx_HAL_Driver/Src/stm32l0xx_hal_gpio.c ****       /* Configure IO Direction mode (Input, Output, Alternate or Analog) */
 221:Drivers/STM32L0xx_HAL_Driver/Src/stm32l0xx_hal_gpio.c ****       temp = GPIOx->MODER;
 222:Drivers/STM32L0xx_HAL_Driver/Src/stm32l0xx_hal_gpio.c ****       temp &= ~(GPIO_MODER_MODE0 << (position * 2U));
 223:Drivers/STM32L0xx_HAL_Driver/Src/stm32l0xx_hal_gpio.c ****       temp |= ((GPIO_Init->Mode & GPIO_MODE) << (position * 2U));
 224:Drivers/STM32L0xx_HAL_Driver/Src/stm32l0xx_hal_gpio.c ****       GPIOx->MODER = temp;
 225:Drivers/STM32L0xx_HAL_Driver/Src/stm32l0xx_hal_gpio.c **** 
 226:Drivers/STM32L0xx_HAL_Driver/Src/stm32l0xx_hal_gpio.c ****       /*--------------------- EXTI Mode Configuration ------------------------*/
 227:Drivers/STM32L0xx_HAL_Driver/Src/stm32l0xx_hal_gpio.c ****       /* Configure the External Interrupt or event for the current IO */
 228:Drivers/STM32L0xx_HAL_Driver/Src/stm32l0xx_hal_gpio.c ****       if ((GPIO_Init->Mode & EXTI_MODE) != 0x00U)
 229:Drivers/STM32L0xx_HAL_Driver/Src/stm32l0xx_hal_gpio.c ****       {
 230:Drivers/STM32L0xx_HAL_Driver/Src/stm32l0xx_hal_gpio.c ****         /* Enable SYSCFG Clock */
 231:Drivers/STM32L0xx_HAL_Driver/Src/stm32l0xx_hal_gpio.c ****         __HAL_RCC_SYSCFG_CLK_ENABLE();
 232:Drivers/STM32L0xx_HAL_Driver/Src/stm32l0xx_hal_gpio.c **** 
 233:Drivers/STM32L0xx_HAL_Driver/Src/stm32l0xx_hal_gpio.c ****         temp = SYSCFG->EXTICR[position >> 2U];
 234:Drivers/STM32L0xx_HAL_Driver/Src/stm32l0xx_hal_gpio.c ****         CLEAR_BIT(temp, (0x0FUL) << (4U * (position & 0x03U)));
 235:Drivers/STM32L0xx_HAL_Driver/Src/stm32l0xx_hal_gpio.c ****         SET_BIT(temp, (GPIO_GET_INDEX(GPIOx)) << (4 * (position & 0x03U)));
 144              		.loc 1 235 9 view .LVU49
 145 004e 0526     		movs	r6, #5
 146 0050 00E0     		b	.L7
 147              	.L13:
 148 0052 0026     		movs	r6, #0
 149              	.L7:
 150              		.loc 1 235 9 discriminator 20 view .LVU50
 151 0054 A640     		lsls	r6, r6, r4
 152 0056 3400     		movs	r4, r6
 153 0058 3C43     		orrs	r4, r7
 154              	.LVL16:
 236:Drivers/STM32L0xx_HAL_Driver/Src/stm32l0xx_hal_gpio.c ****         SYSCFG->EXTICR[position >> 2U] = temp;
 155              		.loc 1 236 9 is_stmt 1 discriminator 20 view .LVU51
 156              		.loc 1 236 40 is_stmt 0 discriminator 20 view .LVU52
 157 005a 0232     		adds	r2, r2, #2
 158 005c 9200     		lsls	r2, r2, #2
 159 005e 454E     		ldr	r6, .L22
 160 0060 9451     		str	r4, [r2, r6]
 237:Drivers/STM32L0xx_HAL_Driver/Src/stm32l0xx_hal_gpio.c **** 
 238:Drivers/STM32L0xx_HAL_Driver/Src/stm32l0xx_hal_gpio.c ****         /* Clear EXTI line configuration */
 239:Drivers/STM32L0xx_HAL_Driver/Src/stm32l0xx_hal_gpio.c ****         temp = EXTI->IMR;
ARM GAS  /tmp/ccbnVyb0.s 			page 8


 161              		.loc 1 239 9 is_stmt 1 discriminator 20 view .LVU53
 162              		.loc 1 239 14 is_stmt 0 discriminator 20 view .LVU54
 163 0062 454A     		ldr	r2, .L22+4
 164 0064 1468     		ldr	r4, [r2]
 165              	.LVL17:
 240:Drivers/STM32L0xx_HAL_Driver/Src/stm32l0xx_hal_gpio.c ****         temp &= ~((uint32_t)iocurrent);
 166              		.loc 1 240 9 is_stmt 1 discriminator 20 view .LVU55
 167              		.loc 1 240 17 is_stmt 0 discriminator 20 view .LVU56
 168 0066 EA43     		mvns	r2, r5
 169              		.loc 1 240 14 discriminator 20 view .LVU57
 170 0068 2600     		movs	r6, r4
 171 006a AE43     		bics	r6, r5
 172              	.LVL18:
 241:Drivers/STM32L0xx_HAL_Driver/Src/stm32l0xx_hal_gpio.c ****         if ((GPIO_Init->Mode & EXTI_IT) != 0x00U)
 173              		.loc 1 241 9 is_stmt 1 discriminator 20 view .LVU58
 174              		.loc 1 241 12 is_stmt 0 discriminator 20 view .LVU59
 175 006c 4F68     		ldr	r7, [r1, #4]
 176 006e FF03     		lsls	r7, r7, #15
 177 0070 01D5     		bpl	.L8
 242:Drivers/STM32L0xx_HAL_Driver/Src/stm32l0xx_hal_gpio.c ****         {
 243:Drivers/STM32L0xx_HAL_Driver/Src/stm32l0xx_hal_gpio.c ****           temp |= iocurrent;
 178              		.loc 1 243 11 is_stmt 1 view .LVU60
 179              		.loc 1 243 16 is_stmt 0 view .LVU61
 180 0072 2C43     		orrs	r4, r5
 181 0074 2600     		movs	r6, r4
 182              	.LVL19:
 183              	.L8:
 244:Drivers/STM32L0xx_HAL_Driver/Src/stm32l0xx_hal_gpio.c ****         }
 245:Drivers/STM32L0xx_HAL_Driver/Src/stm32l0xx_hal_gpio.c ****         EXTI->IMR = temp;
 184              		.loc 1 245 9 is_stmt 1 view .LVU62
 185              		.loc 1 245 19 is_stmt 0 view .LVU63
 186 0076 404C     		ldr	r4, .L22+4
 187 0078 2660     		str	r6, [r4]
 246:Drivers/STM32L0xx_HAL_Driver/Src/stm32l0xx_hal_gpio.c **** 
 247:Drivers/STM32L0xx_HAL_Driver/Src/stm32l0xx_hal_gpio.c ****         temp = EXTI->EMR;
 188              		.loc 1 247 9 is_stmt 1 view .LVU64
 189              		.loc 1 247 14 is_stmt 0 view .LVU65
 190 007a 6468     		ldr	r4, [r4, #4]
 191              	.LVL20:
 248:Drivers/STM32L0xx_HAL_Driver/Src/stm32l0xx_hal_gpio.c ****         temp &= ~((uint32_t)iocurrent);
 192              		.loc 1 248 9 is_stmt 1 view .LVU66
 193              		.loc 1 248 14 is_stmt 0 view .LVU67
 194 007c 2600     		movs	r6, r4
 195 007e 1640     		ands	r6, r2
 196              	.LVL21:
 249:Drivers/STM32L0xx_HAL_Driver/Src/stm32l0xx_hal_gpio.c ****         if ((GPIO_Init->Mode & EXTI_EVT) != 0x00U)
 197              		.loc 1 249 9 is_stmt 1 view .LVU68
 198              		.loc 1 249 12 is_stmt 0 view .LVU69
 199 0080 4F68     		ldr	r7, [r1, #4]
 200 0082 BF03     		lsls	r7, r7, #14
 201 0084 01D5     		bpl	.L9
 250:Drivers/STM32L0xx_HAL_Driver/Src/stm32l0xx_hal_gpio.c ****         {
 251:Drivers/STM32L0xx_HAL_Driver/Src/stm32l0xx_hal_gpio.c ****           temp |= iocurrent;
 202              		.loc 1 251 11 is_stmt 1 view .LVU70
 203              		.loc 1 251 16 is_stmt 0 view .LVU71
 204 0086 2C43     		orrs	r4, r5
 205 0088 2600     		movs	r6, r4
ARM GAS  /tmp/ccbnVyb0.s 			page 9


 206              	.LVL22:
 207              	.L9:
 252:Drivers/STM32L0xx_HAL_Driver/Src/stm32l0xx_hal_gpio.c ****         }
 253:Drivers/STM32L0xx_HAL_Driver/Src/stm32l0xx_hal_gpio.c ****         EXTI->EMR = temp;
 208              		.loc 1 253 9 is_stmt 1 view .LVU72
 209              		.loc 1 253 19 is_stmt 0 view .LVU73
 210 008a 3B4C     		ldr	r4, .L22+4
 211 008c 6660     		str	r6, [r4, #4]
 254:Drivers/STM32L0xx_HAL_Driver/Src/stm32l0xx_hal_gpio.c **** 
 255:Drivers/STM32L0xx_HAL_Driver/Src/stm32l0xx_hal_gpio.c ****         /* Clear Rising Falling edge configuration */
 256:Drivers/STM32L0xx_HAL_Driver/Src/stm32l0xx_hal_gpio.c ****         temp = EXTI->RTSR;
 212              		.loc 1 256 9 is_stmt 1 view .LVU74
 213              		.loc 1 256 14 is_stmt 0 view .LVU75
 214 008e A468     		ldr	r4, [r4, #8]
 215              	.LVL23:
 257:Drivers/STM32L0xx_HAL_Driver/Src/stm32l0xx_hal_gpio.c ****         temp &= ~((uint32_t)iocurrent);
 216              		.loc 1 257 9 is_stmt 1 view .LVU76
 217              		.loc 1 257 14 is_stmt 0 view .LVU77
 218 0090 2600     		movs	r6, r4
 219 0092 1640     		ands	r6, r2
 220              	.LVL24:
 258:Drivers/STM32L0xx_HAL_Driver/Src/stm32l0xx_hal_gpio.c ****         if ((GPIO_Init->Mode & TRIGGER_RISING) != 0x00U)
 221              		.loc 1 258 9 is_stmt 1 view .LVU78
 222              		.loc 1 258 12 is_stmt 0 view .LVU79
 223 0094 4F68     		ldr	r7, [r1, #4]
 224 0096 FF02     		lsls	r7, r7, #11
 225 0098 01D5     		bpl	.L10
 259:Drivers/STM32L0xx_HAL_Driver/Src/stm32l0xx_hal_gpio.c ****         {
 260:Drivers/STM32L0xx_HAL_Driver/Src/stm32l0xx_hal_gpio.c ****           temp |= iocurrent;
 226              		.loc 1 260 11 is_stmt 1 view .LVU80
 227              		.loc 1 260 16 is_stmt 0 view .LVU81
 228 009a 2C43     		orrs	r4, r5
 229 009c 2600     		movs	r6, r4
 230              	.LVL25:
 231              	.L10:
 261:Drivers/STM32L0xx_HAL_Driver/Src/stm32l0xx_hal_gpio.c ****         }
 262:Drivers/STM32L0xx_HAL_Driver/Src/stm32l0xx_hal_gpio.c ****         EXTI->RTSR = temp;
 232              		.loc 1 262 9 is_stmt 1 view .LVU82
 233              		.loc 1 262 20 is_stmt 0 view .LVU83
 234 009e 364C     		ldr	r4, .L22+4
 235 00a0 A660     		str	r6, [r4, #8]
 263:Drivers/STM32L0xx_HAL_Driver/Src/stm32l0xx_hal_gpio.c **** 
 264:Drivers/STM32L0xx_HAL_Driver/Src/stm32l0xx_hal_gpio.c ****         temp = EXTI->FTSR;
 236              		.loc 1 264 9 is_stmt 1 view .LVU84
 237              		.loc 1 264 14 is_stmt 0 view .LVU85
 238 00a2 E468     		ldr	r4, [r4, #12]
 239              	.LVL26:
 265:Drivers/STM32L0xx_HAL_Driver/Src/stm32l0xx_hal_gpio.c ****         temp &= ~((uint32_t)iocurrent);
 240              		.loc 1 265 9 is_stmt 1 view .LVU86
 241              		.loc 1 265 14 is_stmt 0 view .LVU87
 242 00a4 2240     		ands	r2, r4
 243              	.LVL27:
 266:Drivers/STM32L0xx_HAL_Driver/Src/stm32l0xx_hal_gpio.c ****         if ((GPIO_Init->Mode & TRIGGER_FALLING) != 0x00U)
 244              		.loc 1 266 9 is_stmt 1 view .LVU88
 245              		.loc 1 266 12 is_stmt 0 view .LVU89
 246 00a6 4E68     		ldr	r6, [r1, #4]
 247 00a8 B602     		lsls	r6, r6, #10
ARM GAS  /tmp/ccbnVyb0.s 			page 10


 248 00aa 01D5     		bpl	.L11
 267:Drivers/STM32L0xx_HAL_Driver/Src/stm32l0xx_hal_gpio.c ****         {
 268:Drivers/STM32L0xx_HAL_Driver/Src/stm32l0xx_hal_gpio.c ****           temp |= iocurrent;
 249              		.loc 1 268 11 is_stmt 1 view .LVU90
 250              		.loc 1 268 16 is_stmt 0 view .LVU91
 251 00ac 2A00     		movs	r2, r5
 252              	.LVL28:
 253              		.loc 1 268 16 view .LVU92
 254 00ae 2243     		orrs	r2, r4
 255              	.LVL29:
 256              	.L11:
 269:Drivers/STM32L0xx_HAL_Driver/Src/stm32l0xx_hal_gpio.c ****         }
 270:Drivers/STM32L0xx_HAL_Driver/Src/stm32l0xx_hal_gpio.c ****         EXTI->FTSR = temp;
 257              		.loc 1 270 9 is_stmt 1 view .LVU93
 258              		.loc 1 270 20 is_stmt 0 view .LVU94
 259 00b0 314C     		ldr	r4, .L22+4
 260 00b2 E260     		str	r2, [r4, #12]
 261              	.LVL30:
 262              	.L3:
 271:Drivers/STM32L0xx_HAL_Driver/Src/stm32l0xx_hal_gpio.c ****       }
 272:Drivers/STM32L0xx_HAL_Driver/Src/stm32l0xx_hal_gpio.c ****     }
 273:Drivers/STM32L0xx_HAL_Driver/Src/stm32l0xx_hal_gpio.c ****     position++;
 263              		.loc 1 273 5 is_stmt 1 view .LVU95
 264              		.loc 1 273 13 is_stmt 0 view .LVU96
 265 00b4 0133     		adds	r3, r3, #1
 266              	.LVL31:
 267              	.L2:
 167:Drivers/STM32L0xx_HAL_Driver/Src/stm32l0xx_hal_gpio.c ****   {
 268              		.loc 1 167 9 is_stmt 1 view .LVU97
 167:Drivers/STM32L0xx_HAL_Driver/Src/stm32l0xx_hal_gpio.c ****   {
 269              		.loc 1 167 21 is_stmt 0 view .LVU98
 270 00b6 0C68     		ldr	r4, [r1]
 167:Drivers/STM32L0xx_HAL_Driver/Src/stm32l0xx_hal_gpio.c ****   {
 271              		.loc 1 167 28 view .LVU99
 272 00b8 2200     		movs	r2, r4
 273 00ba DA40     		lsrs	r2, r2, r3
 167:Drivers/STM32L0xx_HAL_Driver/Src/stm32l0xx_hal_gpio.c ****   {
 274              		.loc 1 167 9 view .LVU100
 275 00bc 58D0     		beq	.L18
 170:Drivers/STM32L0xx_HAL_Driver/Src/stm32l0xx_hal_gpio.c **** 
 276              		.loc 1 170 5 is_stmt 1 view .LVU101
 170:Drivers/STM32L0xx_HAL_Driver/Src/stm32l0xx_hal_gpio.c **** 
 277              		.loc 1 170 40 is_stmt 0 view .LVU102
 278 00be 0122     		movs	r2, #1
 279 00c0 9A40     		lsls	r2, r2, r3
 170:Drivers/STM32L0xx_HAL_Driver/Src/stm32l0xx_hal_gpio.c **** 
 280              		.loc 1 170 15 view .LVU103
 281 00c2 2500     		movs	r5, r4
 282 00c4 1540     		ands	r5, r2
 283              	.LVL32:
 172:Drivers/STM32L0xx_HAL_Driver/Src/stm32l0xx_hal_gpio.c ****     {
 284              		.loc 1 172 5 is_stmt 1 view .LVU104
 172:Drivers/STM32L0xx_HAL_Driver/Src/stm32l0xx_hal_gpio.c ****     {
 285              		.loc 1 172 8 is_stmt 0 view .LVU105
 286 00c6 1442     		tst	r4, r2
 287 00c8 F4D0     		beq	.L3
 176:Drivers/STM32L0xx_HAL_Driver/Src/stm32l0xx_hal_gpio.c ****           ((GPIO_Init->Mode & GPIO_MODE) == MODE_AF))
ARM GAS  /tmp/ccbnVyb0.s 			page 11


 288              		.loc 1 176 7 is_stmt 1 view .LVU106
 176:Drivers/STM32L0xx_HAL_Driver/Src/stm32l0xx_hal_gpio.c ****           ((GPIO_Init->Mode & GPIO_MODE) == MODE_AF))
 289              		.loc 1 176 29 is_stmt 0 view .LVU107
 290 00ca 0324     		movs	r4, #3
 291 00cc 4E68     		ldr	r6, [r1, #4]
 292 00ce 3440     		ands	r4, r6
 176:Drivers/STM32L0xx_HAL_Driver/Src/stm32l0xx_hal_gpio.c ****           ((GPIO_Init->Mode & GPIO_MODE) == MODE_AF))
 293              		.loc 1 176 58 view .LVU108
 294 00d0 013C     		subs	r4, r4, #1
 176:Drivers/STM32L0xx_HAL_Driver/Src/stm32l0xx_hal_gpio.c ****           ((GPIO_Init->Mode & GPIO_MODE) == MODE_AF))
 295              		.loc 1 176 10 view .LVU109
 296 00d2 012C     		cmp	r4, #1
 297 00d4 97D9     		bls	.L19
 298              	.L4:
 194:Drivers/STM32L0xx_HAL_Driver/Src/stm32l0xx_hal_gpio.c ****       {
 299              		.loc 1 194 7 is_stmt 1 view .LVU110
 194:Drivers/STM32L0xx_HAL_Driver/Src/stm32l0xx_hal_gpio.c ****       {
 300              		.loc 1 194 28 is_stmt 0 view .LVU111
 301 00d6 0322     		movs	r2, #3
 302 00d8 4C68     		ldr	r4, [r1, #4]
 303 00da 2240     		ands	r2, r4
 194:Drivers/STM32L0xx_HAL_Driver/Src/stm32l0xx_hal_gpio.c ****       {
 304              		.loc 1 194 10 view .LVU112
 305 00dc 032A     		cmp	r2, #3
 306 00de 09D0     		beq	.L5
 197:Drivers/STM32L0xx_HAL_Driver/Src/stm32l0xx_hal_gpio.c **** 
 307              		.loc 1 197 9 is_stmt 1 view .LVU113
 200:Drivers/STM32L0xx_HAL_Driver/Src/stm32l0xx_hal_gpio.c ****         temp &= ~(GPIO_PUPDR_PUPD0 << (position * 2U));
 308              		.loc 1 200 9 view .LVU114
 200:Drivers/STM32L0xx_HAL_Driver/Src/stm32l0xx_hal_gpio.c ****         temp &= ~(GPIO_PUPDR_PUPD0 << (position * 2U));
 309              		.loc 1 200 14 is_stmt 0 view .LVU115
 310 00e0 C268     		ldr	r2, [r0, #12]
 311              	.LVL33:
 201:Drivers/STM32L0xx_HAL_Driver/Src/stm32l0xx_hal_gpio.c ****         temp |= ((GPIO_Init->Pull) << (position * 2U));
 312              		.loc 1 201 9 is_stmt 1 view .LVU116
 201:Drivers/STM32L0xx_HAL_Driver/Src/stm32l0xx_hal_gpio.c ****         temp |= ((GPIO_Init->Pull) << (position * 2U));
 313              		.loc 1 201 49 is_stmt 0 view .LVU117
 314 00e2 5E00     		lsls	r6, r3, #1
 201:Drivers/STM32L0xx_HAL_Driver/Src/stm32l0xx_hal_gpio.c ****         temp |= ((GPIO_Init->Pull) << (position * 2U));
 315              		.loc 1 201 36 view .LVU118
 316 00e4 0324     		movs	r4, #3
 317 00e6 B440     		lsls	r4, r4, r6
 201:Drivers/STM32L0xx_HAL_Driver/Src/stm32l0xx_hal_gpio.c ****         temp |= ((GPIO_Init->Pull) << (position * 2U));
 318              		.loc 1 201 14 view .LVU119
 319 00e8 A243     		bics	r2, r4
 320              	.LVL34:
 201:Drivers/STM32L0xx_HAL_Driver/Src/stm32l0xx_hal_gpio.c ****         temp |= ((GPIO_Init->Pull) << (position * 2U));
 321              		.loc 1 201 14 view .LVU120
 322 00ea 1400     		movs	r4, r2
 323              	.LVL35:
 202:Drivers/STM32L0xx_HAL_Driver/Src/stm32l0xx_hal_gpio.c ****         GPIOx->PUPDR = temp;
 324              		.loc 1 202 9 is_stmt 1 view .LVU121
 202:Drivers/STM32L0xx_HAL_Driver/Src/stm32l0xx_hal_gpio.c ****         GPIOx->PUPDR = temp;
 325              		.loc 1 202 36 is_stmt 0 view .LVU122
 326 00ec 8A68     		ldr	r2, [r1, #8]
 327              	.LVL36:
 202:Drivers/STM32L0xx_HAL_Driver/Src/stm32l0xx_hal_gpio.c ****         GPIOx->PUPDR = temp;
ARM GAS  /tmp/ccbnVyb0.s 			page 12


 328              		.loc 1 202 36 view .LVU123
 329 00ee B240     		lsls	r2, r2, r6
 202:Drivers/STM32L0xx_HAL_Driver/Src/stm32l0xx_hal_gpio.c ****         GPIOx->PUPDR = temp;
 330              		.loc 1 202 14 view .LVU124
 331 00f0 2243     		orrs	r2, r4
 332              	.LVL37:
 203:Drivers/STM32L0xx_HAL_Driver/Src/stm32l0xx_hal_gpio.c ****       }
 333              		.loc 1 203 9 is_stmt 1 view .LVU125
 203:Drivers/STM32L0xx_HAL_Driver/Src/stm32l0xx_hal_gpio.c ****       }
 334              		.loc 1 203 22 is_stmt 0 view .LVU126
 335 00f2 C260     		str	r2, [r0, #12]
 336              	.LVL38:
 337              	.L5:
 207:Drivers/STM32L0xx_HAL_Driver/Src/stm32l0xx_hal_gpio.c ****       {
 338              		.loc 1 207 7 is_stmt 1 view .LVU127
 207:Drivers/STM32L0xx_HAL_Driver/Src/stm32l0xx_hal_gpio.c ****       {
 339              		.loc 1 207 28 is_stmt 0 view .LVU128
 340 00f4 0322     		movs	r2, #3
 341 00f6 4C68     		ldr	r4, [r1, #4]
 342 00f8 2240     		ands	r2, r4
 207:Drivers/STM32L0xx_HAL_Driver/Src/stm32l0xx_hal_gpio.c ****       {
 343              		.loc 1 207 10 view .LVU129
 344 00fa 022A     		cmp	r2, #2
 345 00fc 97D0     		beq	.L20
 346              	.L6:
 221:Drivers/STM32L0xx_HAL_Driver/Src/stm32l0xx_hal_gpio.c ****       temp &= ~(GPIO_MODER_MODE0 << (position * 2U));
 347              		.loc 1 221 7 is_stmt 1 view .LVU130
 221:Drivers/STM32L0xx_HAL_Driver/Src/stm32l0xx_hal_gpio.c ****       temp &= ~(GPIO_MODER_MODE0 << (position * 2U));
 348              		.loc 1 221 12 is_stmt 0 view .LVU131
 349 00fe 0468     		ldr	r4, [r0]
 350              	.LVL39:
 222:Drivers/STM32L0xx_HAL_Driver/Src/stm32l0xx_hal_gpio.c ****       temp |= ((GPIO_Init->Mode & GPIO_MODE) << (position * 2U));
 351              		.loc 1 222 7 is_stmt 1 view .LVU132
 222:Drivers/STM32L0xx_HAL_Driver/Src/stm32l0xx_hal_gpio.c ****       temp |= ((GPIO_Init->Mode & GPIO_MODE) << (position * 2U));
 352              		.loc 1 222 47 is_stmt 0 view .LVU133
 353 0100 5E00     		lsls	r6, r3, #1
 222:Drivers/STM32L0xx_HAL_Driver/Src/stm32l0xx_hal_gpio.c ****       temp |= ((GPIO_Init->Mode & GPIO_MODE) << (position * 2U));
 354              		.loc 1 222 34 view .LVU134
 355 0102 0322     		movs	r2, #3
 356 0104 1700     		movs	r7, r2
 357 0106 B740     		lsls	r7, r7, r6
 222:Drivers/STM32L0xx_HAL_Driver/Src/stm32l0xx_hal_gpio.c ****       temp |= ((GPIO_Init->Mode & GPIO_MODE) << (position * 2U));
 358              		.loc 1 222 12 view .LVU135
 359 0108 BC43     		bics	r4, r7
 360              	.LVL40:
 223:Drivers/STM32L0xx_HAL_Driver/Src/stm32l0xx_hal_gpio.c ****       GPIOx->MODER = temp;
 361              		.loc 1 223 7 is_stmt 1 view .LVU136
 223:Drivers/STM32L0xx_HAL_Driver/Src/stm32l0xx_hal_gpio.c ****       GPIOx->MODER = temp;
 362              		.loc 1 223 33 is_stmt 0 view .LVU137
 363 010a 4F68     		ldr	r7, [r1, #4]
 364 010c 3A40     		ands	r2, r7
 223:Drivers/STM32L0xx_HAL_Driver/Src/stm32l0xx_hal_gpio.c ****       GPIOx->MODER = temp;
 365              		.loc 1 223 46 view .LVU138
 366 010e B240     		lsls	r2, r2, r6
 223:Drivers/STM32L0xx_HAL_Driver/Src/stm32l0xx_hal_gpio.c ****       GPIOx->MODER = temp;
 367              		.loc 1 223 12 view .LVU139
 368 0110 2243     		orrs	r2, r4
ARM GAS  /tmp/ccbnVyb0.s 			page 13


 369              	.LVL41:
 224:Drivers/STM32L0xx_HAL_Driver/Src/stm32l0xx_hal_gpio.c **** 
 370              		.loc 1 224 7 is_stmt 1 view .LVU140
 224:Drivers/STM32L0xx_HAL_Driver/Src/stm32l0xx_hal_gpio.c **** 
 371              		.loc 1 224 20 is_stmt 0 view .LVU141
 372 0112 0260     		str	r2, [r0]
 228:Drivers/STM32L0xx_HAL_Driver/Src/stm32l0xx_hal_gpio.c ****       {
 373              		.loc 1 228 7 is_stmt 1 view .LVU142
 228:Drivers/STM32L0xx_HAL_Driver/Src/stm32l0xx_hal_gpio.c ****       {
 374              		.loc 1 228 28 is_stmt 0 view .LVU143
 375 0114 C022     		movs	r2, #192
 376              	.LVL42:
 228:Drivers/STM32L0xx_HAL_Driver/Src/stm32l0xx_hal_gpio.c ****       {
 377              		.loc 1 228 28 view .LVU144
 378 0116 9202     		lsls	r2, r2, #10
 228:Drivers/STM32L0xx_HAL_Driver/Src/stm32l0xx_hal_gpio.c ****       {
 379              		.loc 1 228 10 view .LVU145
 380 0118 4C68     		ldr	r4, [r1, #4]
 381 011a 1442     		tst	r4, r2
 382 011c CAD0     		beq	.L3
 231:Drivers/STM32L0xx_HAL_Driver/Src/stm32l0xx_hal_gpio.c **** 
 383              		.loc 1 231 9 is_stmt 1 view .LVU146
 384 011e 174C     		ldr	r4, .L22+8
 385 0120 626B     		ldr	r2, [r4, #52]
 386 0122 0126     		movs	r6, #1
 387 0124 3243     		orrs	r2, r6
 388 0126 6263     		str	r2, [r4, #52]
 389              	.LVL43:
 233:Drivers/STM32L0xx_HAL_Driver/Src/stm32l0xx_hal_gpio.c ****         CLEAR_BIT(temp, (0x0FUL) << (4U * (position & 0x03U)));
 390              		.loc 1 233 9 view .LVU147
 233:Drivers/STM32L0xx_HAL_Driver/Src/stm32l0xx_hal_gpio.c ****         CLEAR_BIT(temp, (0x0FUL) << (4U * (position & 0x03U)));
 391              		.loc 1 233 40 is_stmt 0 view .LVU148
 392 0128 9A08     		lsrs	r2, r3, #2
 233:Drivers/STM32L0xx_HAL_Driver/Src/stm32l0xx_hal_gpio.c ****         CLEAR_BIT(temp, (0x0FUL) << (4U * (position & 0x03U)));
 393              		.loc 1 233 14 view .LVU149
 394 012a 941C     		adds	r4, r2, #2
 395 012c A400     		lsls	r4, r4, #2
 396 012e 114E     		ldr	r6, .L22
 397 0130 A759     		ldr	r7, [r4, r6]
 398              	.LVL44:
 234:Drivers/STM32L0xx_HAL_Driver/Src/stm32l0xx_hal_gpio.c ****         SET_BIT(temp, (GPIO_GET_INDEX(GPIOx)) << (4 * (position & 0x03U)));
 399              		.loc 1 234 9 is_stmt 1 view .LVU150
 400 0132 0326     		movs	r6, #3
 401 0134 1E40     		ands	r6, r3
 402 0136 B400     		lsls	r4, r6, #2
 403 0138 0F26     		movs	r6, #15
 404 013a A640     		lsls	r6, r6, r4
 405 013c B743     		bics	r7, r6
 406              	.LVL45:
 235:Drivers/STM32L0xx_HAL_Driver/Src/stm32l0xx_hal_gpio.c ****         SYSCFG->EXTICR[position >> 2U] = temp;
 407              		.loc 1 235 9 view .LVU151
 408 013e A026     		movs	r6, #160
 409 0140 F605     		lsls	r6, r6, #23
 410 0142 B042     		cmp	r0, r6
 411 0144 85D0     		beq	.L13
 235:Drivers/STM32L0xx_HAL_Driver/Src/stm32l0xx_hal_gpio.c ****         SYSCFG->EXTICR[position >> 2U] = temp;
 412              		.loc 1 235 9 is_stmt 0 discriminator 1 view .LVU152
ARM GAS  /tmp/ccbnVyb0.s 			page 14


 413 0146 0E4E     		ldr	r6, .L22+12
 414 0148 B042     		cmp	r0, r6
 415 014a 0BD0     		beq	.L14
 235:Drivers/STM32L0xx_HAL_Driver/Src/stm32l0xx_hal_gpio.c ****         SYSCFG->EXTICR[position >> 2U] = temp;
 416              		.loc 1 235 9 discriminator 3 view .LVU153
 417 014c 0D4E     		ldr	r6, .L22+16
 418 014e B042     		cmp	r0, r6
 419 0150 0AD0     		beq	.L15
 235:Drivers/STM32L0xx_HAL_Driver/Src/stm32l0xx_hal_gpio.c ****         SYSCFG->EXTICR[position >> 2U] = temp;
 420              		.loc 1 235 9 discriminator 5 view .LVU154
 421 0152 0D4E     		ldr	r6, .L22+20
 422 0154 B042     		cmp	r0, r6
 423 0156 09D0     		beq	.L16
 235:Drivers/STM32L0xx_HAL_Driver/Src/stm32l0xx_hal_gpio.c ****         SYSCFG->EXTICR[position >> 2U] = temp;
 424              		.loc 1 235 9 discriminator 7 view .LVU155
 425 0158 0C4E     		ldr	r6, .L22+24
 426 015a B042     		cmp	r0, r6
 427 015c 00D1     		bne	.LCB402
 428 015e 76E7     		b	.L21	@long jump
 429              	.LCB402:
 235:Drivers/STM32L0xx_HAL_Driver/Src/stm32l0xx_hal_gpio.c ****         SYSCFG->EXTICR[position >> 2U] = temp;
 430              		.loc 1 235 9 view .LVU156
 431 0160 0626     		movs	r6, #6
 432 0162 77E7     		b	.L7
 433              	.L14:
 434 0164 0126     		movs	r6, #1
 435 0166 75E7     		b	.L7
 436              	.L15:
 437 0168 0226     		movs	r6, #2
 438 016a 73E7     		b	.L7
 439              	.L16:
 440 016c 0326     		movs	r6, #3
 441 016e 71E7     		b	.L7
 442              	.LVL46:
 443              	.L18:
 274:Drivers/STM32L0xx_HAL_Driver/Src/stm32l0xx_hal_gpio.c ****   }
 275:Drivers/STM32L0xx_HAL_Driver/Src/stm32l0xx_hal_gpio.c **** }
 444              		.loc 1 275 1 view .LVU157
 445              		@ sp needed
 446 0170 F0BD     		pop	{r4, r5, r6, r7, pc}
 447              	.L23:
 448 0172 C046     		.align	2
 449              	.L22:
 450 0174 00000140 		.word	1073807360
 451 0178 00040140 		.word	1073808384
 452 017c 00100240 		.word	1073876992
 453 0180 00040050 		.word	1342178304
 454 0184 00080050 		.word	1342179328
 455 0188 000C0050 		.word	1342180352
 456 018c 001C0050 		.word	1342184448
 457              		.cfi_endproc
 458              	.LFE47:
 460              		.section	.text.HAL_GPIO_DeInit,"ax",%progbits
 461              		.align	1
 462              		.global	HAL_GPIO_DeInit
 463              		.syntax unified
 464              		.code	16
ARM GAS  /tmp/ccbnVyb0.s 			page 15


 465              		.thumb_func
 467              	HAL_GPIO_DeInit:
 468              	.LVL47:
 469              	.LFB48:
 276:Drivers/STM32L0xx_HAL_Driver/Src/stm32l0xx_hal_gpio.c **** 
 277:Drivers/STM32L0xx_HAL_Driver/Src/stm32l0xx_hal_gpio.c **** /**
 278:Drivers/STM32L0xx_HAL_Driver/Src/stm32l0xx_hal_gpio.c ****   * @brief  De-initializes the GPIOx peripheral registers to their default reset values.
 279:Drivers/STM32L0xx_HAL_Driver/Src/stm32l0xx_hal_gpio.c ****   * @param  GPIOx where x can be (A..E and H) to select the GPIO peripheral for STM32L0XX family de
 280:Drivers/STM32L0xx_HAL_Driver/Src/stm32l0xx_hal_gpio.c ****   *                Note that GPIOE is not available on all devices.
 281:Drivers/STM32L0xx_HAL_Driver/Src/stm32l0xx_hal_gpio.c ****   * @param  GPIO_Pin specifies the port bit to be written.
 282:Drivers/STM32L0xx_HAL_Driver/Src/stm32l0xx_hal_gpio.c ****   *                   This parameter can be one of GPIO_PIN_x where x can be (0..15).
 283:Drivers/STM32L0xx_HAL_Driver/Src/stm32l0xx_hal_gpio.c ****   *                   All port bits are not necessarily available on all GPIOs.
 284:Drivers/STM32L0xx_HAL_Driver/Src/stm32l0xx_hal_gpio.c ****   * @retval None
 285:Drivers/STM32L0xx_HAL_Driver/Src/stm32l0xx_hal_gpio.c ****   */
 286:Drivers/STM32L0xx_HAL_Driver/Src/stm32l0xx_hal_gpio.c **** void HAL_GPIO_DeInit(GPIO_TypeDef  *GPIOx, uint32_t GPIO_Pin)
 287:Drivers/STM32L0xx_HAL_Driver/Src/stm32l0xx_hal_gpio.c **** {
 470              		.loc 1 287 1 is_stmt 1 view -0
 471              		.cfi_startproc
 472              		@ args = 0, pretend = 0, frame = 0
 473              		@ frame_needed = 0, uses_anonymous_args = 0
 474              		.loc 1 287 1 is_stmt 0 view .LVU159
 475 0000 F0B5     		push	{r4, r5, r6, r7, lr}
 476              	.LCFI1:
 477              		.cfi_def_cfa_offset 20
 478              		.cfi_offset 4, -20
 479              		.cfi_offset 5, -16
 480              		.cfi_offset 6, -12
 481              		.cfi_offset 7, -8
 482              		.cfi_offset 14, -4
 483 0002 CE46     		mov	lr, r9
 484 0004 4746     		mov	r7, r8
 485 0006 80B5     		push	{r7, lr}
 486              	.LCFI2:
 487              		.cfi_def_cfa_offset 28
 488              		.cfi_offset 8, -28
 489              		.cfi_offset 9, -24
 490 0008 8946     		mov	r9, r1
 288:Drivers/STM32L0xx_HAL_Driver/Src/stm32l0xx_hal_gpio.c ****   uint32_t position = 0x00U;
 491              		.loc 1 288 3 is_stmt 1 view .LVU160
 492              	.LVL48:
 289:Drivers/STM32L0xx_HAL_Driver/Src/stm32l0xx_hal_gpio.c ****   uint32_t iocurrent = 0x00U;
 493              		.loc 1 289 3 view .LVU161
 290:Drivers/STM32L0xx_HAL_Driver/Src/stm32l0xx_hal_gpio.c ****   uint32_t tmp = 0x00U;
 494              		.loc 1 290 3 view .LVU162
 291:Drivers/STM32L0xx_HAL_Driver/Src/stm32l0xx_hal_gpio.c **** 
 292:Drivers/STM32L0xx_HAL_Driver/Src/stm32l0xx_hal_gpio.c ****   /* Check the parameters */
 293:Drivers/STM32L0xx_HAL_Driver/Src/stm32l0xx_hal_gpio.c ****   assert_param(IS_GPIO_PIN_AVAILABLE(GPIOx, GPIO_Pin));
 495              		.loc 1 293 3 view .LVU163
 294:Drivers/STM32L0xx_HAL_Driver/Src/stm32l0xx_hal_gpio.c **** 
 295:Drivers/STM32L0xx_HAL_Driver/Src/stm32l0xx_hal_gpio.c ****   /* Configure the port pins */
 296:Drivers/STM32L0xx_HAL_Driver/Src/stm32l0xx_hal_gpio.c ****   while ((GPIO_Pin >> position) != 0)
 496              		.loc 1 296 3 view .LVU164
 288:Drivers/STM32L0xx_HAL_Driver/Src/stm32l0xx_hal_gpio.c ****   uint32_t iocurrent = 0x00U;
 497              		.loc 1 288 12 is_stmt 0 view .LVU165
 498 000a 0023     		movs	r3, #0
 499              		.loc 1 296 9 view .LVU166
 500 000c 23E0     		b	.L25
ARM GAS  /tmp/ccbnVyb0.s 			page 16


 501              	.LVL49:
 502              	.L37:
 297:Drivers/STM32L0xx_HAL_Driver/Src/stm32l0xx_hal_gpio.c ****   {
 298:Drivers/STM32L0xx_HAL_Driver/Src/stm32l0xx_hal_gpio.c ****     /* Get the IO position */
 299:Drivers/STM32L0xx_HAL_Driver/Src/stm32l0xx_hal_gpio.c ****     iocurrent = (GPIO_Pin) & (1U << position);
 300:Drivers/STM32L0xx_HAL_Driver/Src/stm32l0xx_hal_gpio.c **** 
 301:Drivers/STM32L0xx_HAL_Driver/Src/stm32l0xx_hal_gpio.c ****     if (iocurrent)
 302:Drivers/STM32L0xx_HAL_Driver/Src/stm32l0xx_hal_gpio.c ****     {
 303:Drivers/STM32L0xx_HAL_Driver/Src/stm32l0xx_hal_gpio.c ****       /*------------------------- EXTI Mode Configuration --------------------*/
 304:Drivers/STM32L0xx_HAL_Driver/Src/stm32l0xx_hal_gpio.c ****       /* Clear the External Interrupt or Event for the current IO */
 305:Drivers/STM32L0xx_HAL_Driver/Src/stm32l0xx_hal_gpio.c **** 
 306:Drivers/STM32L0xx_HAL_Driver/Src/stm32l0xx_hal_gpio.c ****       tmp = SYSCFG->EXTICR[position >> 2U];
 307:Drivers/STM32L0xx_HAL_Driver/Src/stm32l0xx_hal_gpio.c ****       tmp &= ((0x0FUL) << (4U * (position & 0x03U)));
 308:Drivers/STM32L0xx_HAL_Driver/Src/stm32l0xx_hal_gpio.c ****       if (tmp == (GPIO_GET_INDEX(GPIOx) << (4U * (position & 0x03U))))
 503              		.loc 1 308 19 view .LVU167
 504 000e 0521     		movs	r1, #5
 505 0010 8846     		mov	r8, r1
 506 0012 01E0     		b	.L27
 507              	.L30:
 508 0014 0021     		movs	r1, #0
 509 0016 8846     		mov	r8, r1
 510              	.L27:
 511              		.loc 1 308 41 discriminator 20 view .LVU168
 512 0018 4146     		mov	r1, r8
 513 001a A140     		lsls	r1, r1, r4
 514              		.loc 1 308 10 discriminator 20 view .LVU169
 515 001c A942     		cmp	r1, r5
 516 001e 4CD0     		beq	.L35
 517              	.LVL50:
 518              	.L28:
 309:Drivers/STM32L0xx_HAL_Driver/Src/stm32l0xx_hal_gpio.c ****       {
 310:Drivers/STM32L0xx_HAL_Driver/Src/stm32l0xx_hal_gpio.c ****         /* Clear EXTI line configuration */
 311:Drivers/STM32L0xx_HAL_Driver/Src/stm32l0xx_hal_gpio.c ****         EXTI->IMR &= ~((uint32_t)iocurrent);
 312:Drivers/STM32L0xx_HAL_Driver/Src/stm32l0xx_hal_gpio.c ****         EXTI->EMR &= ~((uint32_t)iocurrent);
 313:Drivers/STM32L0xx_HAL_Driver/Src/stm32l0xx_hal_gpio.c **** 
 314:Drivers/STM32L0xx_HAL_Driver/Src/stm32l0xx_hal_gpio.c ****         /* Clear Rising Falling edge configuration */
 315:Drivers/STM32L0xx_HAL_Driver/Src/stm32l0xx_hal_gpio.c ****         EXTI->RTSR &= ~((uint32_t)iocurrent);
 316:Drivers/STM32L0xx_HAL_Driver/Src/stm32l0xx_hal_gpio.c ****         EXTI->FTSR &= ~((uint32_t)iocurrent);
 317:Drivers/STM32L0xx_HAL_Driver/Src/stm32l0xx_hal_gpio.c ****         
 318:Drivers/STM32L0xx_HAL_Driver/Src/stm32l0xx_hal_gpio.c ****         tmp = (0x0FUL) << (4U * (position & 0x03U));
 319:Drivers/STM32L0xx_HAL_Driver/Src/stm32l0xx_hal_gpio.c ****         SYSCFG->EXTICR[position >> 2U] &= ~tmp;
 320:Drivers/STM32L0xx_HAL_Driver/Src/stm32l0xx_hal_gpio.c ****       }
 321:Drivers/STM32L0xx_HAL_Driver/Src/stm32l0xx_hal_gpio.c **** 
 322:Drivers/STM32L0xx_HAL_Driver/Src/stm32l0xx_hal_gpio.c ****       /*------------------------- GPIO Mode Configuration --------------------*/
 323:Drivers/STM32L0xx_HAL_Driver/Src/stm32l0xx_hal_gpio.c ****       /* Configure IO Direction in Input Floting Mode */
 324:Drivers/STM32L0xx_HAL_Driver/Src/stm32l0xx_hal_gpio.c ****       GPIOx->MODER |= (GPIO_MODER_MODE0 << (position * 2U));
 519              		.loc 1 324 7 is_stmt 1 view .LVU170
 520              		.loc 1 324 20 is_stmt 0 view .LVU171
 521 0020 0468     		ldr	r4, [r0]
 522              		.loc 1 324 54 view .LVU172
 523 0022 5E00     		lsls	r6, r3, #1
 524              		.loc 1 324 41 view .LVU173
 525 0024 0325     		movs	r5, #3
 526 0026 B540     		lsls	r5, r5, r6
 527              		.loc 1 324 20 view .LVU174
 528 0028 2C43     		orrs	r4, r5
 529 002a 0460     		str	r4, [r0]
ARM GAS  /tmp/ccbnVyb0.s 			page 17


 325:Drivers/STM32L0xx_HAL_Driver/Src/stm32l0xx_hal_gpio.c **** 
 326:Drivers/STM32L0xx_HAL_Driver/Src/stm32l0xx_hal_gpio.c ****       /* Configure the default Alternate Function in current IO */
 327:Drivers/STM32L0xx_HAL_Driver/Src/stm32l0xx_hal_gpio.c ****       GPIOx->AFR[position >> 3U] &= ~(0xFUL << ((uint32_t)(position & 0x07UL) * 4U));
 530              		.loc 1 327 7 is_stmt 1 view .LVU175
 531              		.loc 1 327 34 is_stmt 0 view .LVU176
 532 002c DC08     		lsrs	r4, r3, #3
 533 002e 0834     		adds	r4, r4, #8
 534 0030 A400     		lsls	r4, r4, #2
 535 0032 2758     		ldr	r7, [r4, r0]
 536              		.loc 1 327 49 view .LVU177
 537 0034 0726     		movs	r6, #7
 538 0036 1E40     		ands	r6, r3
 539              		.loc 1 327 79 view .LVU178
 540 0038 B600     		lsls	r6, r6, #2
 541              		.loc 1 327 45 view .LVU179
 542 003a 0F21     		movs	r1, #15
 543 003c B140     		lsls	r1, r1, r6
 544              		.loc 1 327 34 view .LVU180
 545 003e 8F43     		bics	r7, r1
 546 0040 2750     		str	r7, [r4, r0]
 328:Drivers/STM32L0xx_HAL_Driver/Src/stm32l0xx_hal_gpio.c **** 
 329:Drivers/STM32L0xx_HAL_Driver/Src/stm32l0xx_hal_gpio.c ****       /* Deactivate the Pull-up oand Pull-down resistor for the current IO */
 330:Drivers/STM32L0xx_HAL_Driver/Src/stm32l0xx_hal_gpio.c ****       GPIOx->PUPDR &= ~(GPIO_PUPDR_PUPD0 << (position * 2U));
 547              		.loc 1 330 7 is_stmt 1 view .LVU181
 548              		.loc 1 330 20 is_stmt 0 view .LVU182
 549 0042 C468     		ldr	r4, [r0, #12]
 550 0044 AC43     		bics	r4, r5
 551 0046 C460     		str	r4, [r0, #12]
 331:Drivers/STM32L0xx_HAL_Driver/Src/stm32l0xx_hal_gpio.c **** 
 332:Drivers/STM32L0xx_HAL_Driver/Src/stm32l0xx_hal_gpio.c ****       /* Configure the default value IO Output Type */
 333:Drivers/STM32L0xx_HAL_Driver/Src/stm32l0xx_hal_gpio.c ****       GPIOx->OTYPER  &= ~(GPIO_OTYPER_OT_0 << position);
 552              		.loc 1 333 7 is_stmt 1 view .LVU183
 553              		.loc 1 333 22 is_stmt 0 view .LVU184
 554 0048 4468     		ldr	r4, [r0, #4]
 555 004a 9443     		bics	r4, r2
 556 004c 4460     		str	r4, [r0, #4]
 334:Drivers/STM32L0xx_HAL_Driver/Src/stm32l0xx_hal_gpio.c **** 
 335:Drivers/STM32L0xx_HAL_Driver/Src/stm32l0xx_hal_gpio.c ****       /* Configure the default value for IO Speed */
 336:Drivers/STM32L0xx_HAL_Driver/Src/stm32l0xx_hal_gpio.c ****       GPIOx->OSPEEDR &= ~(GPIO_OSPEEDER_OSPEED0 << (position * 2U));
 557              		.loc 1 336 7 is_stmt 1 view .LVU185
 558              		.loc 1 336 22 is_stmt 0 view .LVU186
 559 004e 8268     		ldr	r2, [r0, #8]
 560 0050 AA43     		bics	r2, r5
 561 0052 8260     		str	r2, [r0, #8]
 562              	.L26:
 337:Drivers/STM32L0xx_HAL_Driver/Src/stm32l0xx_hal_gpio.c ****     }
 338:Drivers/STM32L0xx_HAL_Driver/Src/stm32l0xx_hal_gpio.c ****     position++;
 563              		.loc 1 338 5 is_stmt 1 view .LVU187
 564              		.loc 1 338 13 is_stmt 0 view .LVU188
 565 0054 0133     		adds	r3, r3, #1
 566              	.LVL51:
 567              	.L25:
 296:Drivers/STM32L0xx_HAL_Driver/Src/stm32l0xx_hal_gpio.c ****   {
 568              		.loc 1 296 9 is_stmt 1 view .LVU189
 296:Drivers/STM32L0xx_HAL_Driver/Src/stm32l0xx_hal_gpio.c ****   {
 569              		.loc 1 296 20 is_stmt 0 view .LVU190
 570 0056 4A46     		mov	r2, r9
ARM GAS  /tmp/ccbnVyb0.s 			page 18


 571 0058 DA40     		lsrs	r2, r2, r3
 296:Drivers/STM32L0xx_HAL_Driver/Src/stm32l0xx_hal_gpio.c ****   {
 572              		.loc 1 296 9 view .LVU191
 573 005a 43D0     		beq	.L36
 299:Drivers/STM32L0xx_HAL_Driver/Src/stm32l0xx_hal_gpio.c **** 
 574              		.loc 1 299 5 is_stmt 1 view .LVU192
 299:Drivers/STM32L0xx_HAL_Driver/Src/stm32l0xx_hal_gpio.c **** 
 575              		.loc 1 299 34 is_stmt 0 view .LVU193
 576 005c 0122     		movs	r2, #1
 577 005e 9A40     		lsls	r2, r2, r3
 299:Drivers/STM32L0xx_HAL_Driver/Src/stm32l0xx_hal_gpio.c **** 
 578              		.loc 1 299 15 view .LVU194
 579 0060 4C46     		mov	r4, r9
 580 0062 1440     		ands	r4, r2
 581 0064 A446     		mov	ip, r4
 582              	.LVL52:
 301:Drivers/STM32L0xx_HAL_Driver/Src/stm32l0xx_hal_gpio.c ****     {
 583              		.loc 1 301 5 is_stmt 1 view .LVU195
 301:Drivers/STM32L0xx_HAL_Driver/Src/stm32l0xx_hal_gpio.c ****     {
 584              		.loc 1 301 8 is_stmt 0 view .LVU196
 585 0066 4946     		mov	r1, r9
 586 0068 1142     		tst	r1, r2
 587 006a F3D0     		beq	.L26
 588              	.LVL53:
 306:Drivers/STM32L0xx_HAL_Driver/Src/stm32l0xx_hal_gpio.c ****       tmp &= ((0x0FUL) << (4U * (position & 0x03U)));
 589              		.loc 1 306 7 is_stmt 1 view .LVU197
 306:Drivers/STM32L0xx_HAL_Driver/Src/stm32l0xx_hal_gpio.c ****       tmp &= ((0x0FUL) << (4U * (position & 0x03U)));
 590              		.loc 1 306 37 is_stmt 0 view .LVU198
 591 006c 9F08     		lsrs	r7, r3, #2
 306:Drivers/STM32L0xx_HAL_Driver/Src/stm32l0xx_hal_gpio.c ****       tmp &= ((0x0FUL) << (4U * (position & 0x03U)));
 592              		.loc 1 306 11 view .LVU199
 593 006e BC1C     		adds	r4, r7, #2
 594              	.LVL54:
 306:Drivers/STM32L0xx_HAL_Driver/Src/stm32l0xx_hal_gpio.c ****       tmp &= ((0x0FUL) << (4U * (position & 0x03U)));
 595              		.loc 1 306 11 view .LVU200
 596 0070 A400     		lsls	r4, r4, #2
 597 0072 1E4D     		ldr	r5, .L38
 598 0074 6559     		ldr	r5, [r4, r5]
 599              	.LVL55:
 307:Drivers/STM32L0xx_HAL_Driver/Src/stm32l0xx_hal_gpio.c ****       if (tmp == (GPIO_GET_INDEX(GPIOx) << (4U * (position & 0x03U))))
 600              		.loc 1 307 7 is_stmt 1 view .LVU201
 307:Drivers/STM32L0xx_HAL_Driver/Src/stm32l0xx_hal_gpio.c ****       if (tmp == (GPIO_GET_INDEX(GPIOx) << (4U * (position & 0x03U))))
 601              		.loc 1 307 43 is_stmt 0 view .LVU202
 602 0076 0326     		movs	r6, #3
 603 0078 1E40     		ands	r6, r3
 307:Drivers/STM32L0xx_HAL_Driver/Src/stm32l0xx_hal_gpio.c ****       if (tmp == (GPIO_GET_INDEX(GPIOx) << (4U * (position & 0x03U))))
 604              		.loc 1 307 31 view .LVU203
 605 007a B400     		lsls	r4, r6, #2
 307:Drivers/STM32L0xx_HAL_Driver/Src/stm32l0xx_hal_gpio.c ****       if (tmp == (GPIO_GET_INDEX(GPIOx) << (4U * (position & 0x03U))))
 606              		.loc 1 307 24 view .LVU204
 607 007c 0F26     		movs	r6, #15
 608 007e A640     		lsls	r6, r6, r4
 307:Drivers/STM32L0xx_HAL_Driver/Src/stm32l0xx_hal_gpio.c ****       if (tmp == (GPIO_GET_INDEX(GPIOx) << (4U * (position & 0x03U))))
 609              		.loc 1 307 11 view .LVU205
 610 0080 3540     		ands	r5, r6
 611              	.LVL56:
 308:Drivers/STM32L0xx_HAL_Driver/Src/stm32l0xx_hal_gpio.c ****       {
ARM GAS  /tmp/ccbnVyb0.s 			page 19


 612              		.loc 1 308 7 is_stmt 1 view .LVU206
 308:Drivers/STM32L0xx_HAL_Driver/Src/stm32l0xx_hal_gpio.c ****       {
 613              		.loc 1 308 19 is_stmt 0 view .LVU207
 614 0082 A021     		movs	r1, #160
 615              	.LVL57:
 308:Drivers/STM32L0xx_HAL_Driver/Src/stm32l0xx_hal_gpio.c ****       {
 616              		.loc 1 308 19 view .LVU208
 617 0084 C905     		lsls	r1, r1, #23
 618 0086 8842     		cmp	r0, r1
 619 0088 C4D0     		beq	.L30
 308:Drivers/STM32L0xx_HAL_Driver/Src/stm32l0xx_hal_gpio.c ****       {
 620              		.loc 1 308 19 discriminator 1 view .LVU209
 621 008a 1949     		ldr	r1, .L38+4
 622 008c 8842     		cmp	r0, r1
 623 008e 0BD0     		beq	.L31
 308:Drivers/STM32L0xx_HAL_Driver/Src/stm32l0xx_hal_gpio.c ****       {
 624              		.loc 1 308 19 discriminator 3 view .LVU210
 625 0090 1849     		ldr	r1, .L38+8
 626 0092 8842     		cmp	r0, r1
 627 0094 0BD0     		beq	.L32
 308:Drivers/STM32L0xx_HAL_Driver/Src/stm32l0xx_hal_gpio.c ****       {
 628              		.loc 1 308 19 discriminator 5 view .LVU211
 629 0096 1849     		ldr	r1, .L38+12
 630 0098 8842     		cmp	r0, r1
 631 009a 0BD0     		beq	.L33
 308:Drivers/STM32L0xx_HAL_Driver/Src/stm32l0xx_hal_gpio.c ****       {
 632              		.loc 1 308 19 discriminator 7 view .LVU212
 633 009c 1749     		ldr	r1, .L38+16
 634 009e 8842     		cmp	r0, r1
 635 00a0 B5D0     		beq	.L37
 308:Drivers/STM32L0xx_HAL_Driver/Src/stm32l0xx_hal_gpio.c ****       {
 636              		.loc 1 308 19 view .LVU213
 637 00a2 0621     		movs	r1, #6
 638 00a4 8846     		mov	r8, r1
 639 00a6 B7E7     		b	.L27
 640              	.L31:
 641 00a8 0121     		movs	r1, #1
 642 00aa 8846     		mov	r8, r1
 643 00ac B4E7     		b	.L27
 644              	.L32:
 645 00ae 0221     		movs	r1, #2
 646 00b0 8846     		mov	r8, r1
 647 00b2 B1E7     		b	.L27
 648              	.L33:
 649 00b4 0321     		movs	r1, #3
 650 00b6 8846     		mov	r8, r1
 651 00b8 AEE7     		b	.L27
 652              	.L35:
 311:Drivers/STM32L0xx_HAL_Driver/Src/stm32l0xx_hal_gpio.c ****         EXTI->EMR &= ~((uint32_t)iocurrent);
 653              		.loc 1 311 9 is_stmt 1 view .LVU214
 311:Drivers/STM32L0xx_HAL_Driver/Src/stm32l0xx_hal_gpio.c ****         EXTI->EMR &= ~((uint32_t)iocurrent);
 654              		.loc 1 311 19 is_stmt 0 view .LVU215
 655 00ba 114C     		ldr	r4, .L38+20
 656 00bc 2568     		ldr	r5, [r4]
 657              	.LVL58:
 311:Drivers/STM32L0xx_HAL_Driver/Src/stm32l0xx_hal_gpio.c ****         EXTI->EMR &= ~((uint32_t)iocurrent);
 658              		.loc 1 311 19 view .LVU216
ARM GAS  /tmp/ccbnVyb0.s 			page 20


 659 00be 6146     		mov	r1, ip
 660 00c0 8D43     		bics	r5, r1
 661 00c2 2560     		str	r5, [r4]
 312:Drivers/STM32L0xx_HAL_Driver/Src/stm32l0xx_hal_gpio.c **** 
 662              		.loc 1 312 9 is_stmt 1 view .LVU217
 312:Drivers/STM32L0xx_HAL_Driver/Src/stm32l0xx_hal_gpio.c **** 
 663              		.loc 1 312 19 is_stmt 0 view .LVU218
 664 00c4 6568     		ldr	r5, [r4, #4]
 665 00c6 8D43     		bics	r5, r1
 666 00c8 6560     		str	r5, [r4, #4]
 315:Drivers/STM32L0xx_HAL_Driver/Src/stm32l0xx_hal_gpio.c ****         EXTI->FTSR &= ~((uint32_t)iocurrent);
 667              		.loc 1 315 9 is_stmt 1 view .LVU219
 315:Drivers/STM32L0xx_HAL_Driver/Src/stm32l0xx_hal_gpio.c ****         EXTI->FTSR &= ~((uint32_t)iocurrent);
 668              		.loc 1 315 20 is_stmt 0 view .LVU220
 669 00ca A568     		ldr	r5, [r4, #8]
 670 00cc 8D43     		bics	r5, r1
 671 00ce A560     		str	r5, [r4, #8]
 316:Drivers/STM32L0xx_HAL_Driver/Src/stm32l0xx_hal_gpio.c ****         
 672              		.loc 1 316 9 is_stmt 1 view .LVU221
 316:Drivers/STM32L0xx_HAL_Driver/Src/stm32l0xx_hal_gpio.c ****         
 673              		.loc 1 316 20 is_stmt 0 view .LVU222
 674 00d0 E568     		ldr	r5, [r4, #12]
 675 00d2 8D43     		bics	r5, r1
 676 00d4 E560     		str	r5, [r4, #12]
 318:Drivers/STM32L0xx_HAL_Driver/Src/stm32l0xx_hal_gpio.c ****         SYSCFG->EXTICR[position >> 2U] &= ~tmp;
 677              		.loc 1 318 9 is_stmt 1 view .LVU223
 678              	.LVL59:
 319:Drivers/STM32L0xx_HAL_Driver/Src/stm32l0xx_hal_gpio.c ****       }
 679              		.loc 1 319 9 view .LVU224
 319:Drivers/STM32L0xx_HAL_Driver/Src/stm32l0xx_hal_gpio.c ****       }
 680              		.loc 1 319 40 is_stmt 0 view .LVU225
 681 00d6 0549     		ldr	r1, .L38
 682 00d8 0237     		adds	r7, r7, #2
 683 00da BC00     		lsls	r4, r7, #2
 684 00dc 6558     		ldr	r5, [r4, r1]
 685 00de B543     		bics	r5, r6
 686 00e0 6550     		str	r5, [r4, r1]
 687 00e2 9DE7     		b	.L28
 688              	.LVL60:
 689              	.L36:
 339:Drivers/STM32L0xx_HAL_Driver/Src/stm32l0xx_hal_gpio.c ****   }
 340:Drivers/STM32L0xx_HAL_Driver/Src/stm32l0xx_hal_gpio.c **** }
 690              		.loc 1 340 1 view .LVU226
 691              		@ sp needed
 692              	.LVL61:
 693              		.loc 1 340 1 view .LVU227
 694 00e4 C0BC     		pop	{r6, r7}
 695 00e6 B946     		mov	r9, r7
 696 00e8 B046     		mov	r8, r6
 697 00ea F0BD     		pop	{r4, r5, r6, r7, pc}
 698              	.L39:
 699              		.align	2
 700              	.L38:
 701 00ec 00000140 		.word	1073807360
 702 00f0 00040050 		.word	1342178304
 703 00f4 00080050 		.word	1342179328
 704 00f8 000C0050 		.word	1342180352
ARM GAS  /tmp/ccbnVyb0.s 			page 21


 705 00fc 001C0050 		.word	1342184448
 706 0100 00040140 		.word	1073808384
 707              		.cfi_endproc
 708              	.LFE48:
 710              		.section	.text.HAL_GPIO_ReadPin,"ax",%progbits
 711              		.align	1
 712              		.global	HAL_GPIO_ReadPin
 713              		.syntax unified
 714              		.code	16
 715              		.thumb_func
 717              	HAL_GPIO_ReadPin:
 718              	.LVL62:
 719              	.LFB49:
 341:Drivers/STM32L0xx_HAL_Driver/Src/stm32l0xx_hal_gpio.c **** 
 342:Drivers/STM32L0xx_HAL_Driver/Src/stm32l0xx_hal_gpio.c **** /**
 343:Drivers/STM32L0xx_HAL_Driver/Src/stm32l0xx_hal_gpio.c ****   * @}
 344:Drivers/STM32L0xx_HAL_Driver/Src/stm32l0xx_hal_gpio.c ****   */
 345:Drivers/STM32L0xx_HAL_Driver/Src/stm32l0xx_hal_gpio.c **** 
 346:Drivers/STM32L0xx_HAL_Driver/Src/stm32l0xx_hal_gpio.c **** /** @addtogroup GPIO_Exported_Functions_Group2
 347:Drivers/STM32L0xx_HAL_Driver/Src/stm32l0xx_hal_gpio.c ****  *  @brief   GPIO Read and Write
 348:Drivers/STM32L0xx_HAL_Driver/Src/stm32l0xx_hal_gpio.c ****  *
 349:Drivers/STM32L0xx_HAL_Driver/Src/stm32l0xx_hal_gpio.c **** @verbatim
 350:Drivers/STM32L0xx_HAL_Driver/Src/stm32l0xx_hal_gpio.c ****  ===============================================================================
 351:Drivers/STM32L0xx_HAL_Driver/Src/stm32l0xx_hal_gpio.c ****                        ##### IO operation functions #####
 352:Drivers/STM32L0xx_HAL_Driver/Src/stm32l0xx_hal_gpio.c ****  ===============================================================================
 353:Drivers/STM32L0xx_HAL_Driver/Src/stm32l0xx_hal_gpio.c **** 
 354:Drivers/STM32L0xx_HAL_Driver/Src/stm32l0xx_hal_gpio.c **** @endverbatim
 355:Drivers/STM32L0xx_HAL_Driver/Src/stm32l0xx_hal_gpio.c ****   * @{
 356:Drivers/STM32L0xx_HAL_Driver/Src/stm32l0xx_hal_gpio.c ****   */
 357:Drivers/STM32L0xx_HAL_Driver/Src/stm32l0xx_hal_gpio.c **** 
 358:Drivers/STM32L0xx_HAL_Driver/Src/stm32l0xx_hal_gpio.c **** /**
 359:Drivers/STM32L0xx_HAL_Driver/Src/stm32l0xx_hal_gpio.c ****   * @brief  Reads the specified input port pin.
 360:Drivers/STM32L0xx_HAL_Driver/Src/stm32l0xx_hal_gpio.c ****   * @param  GPIOx where x can be (A..E and H) to select the GPIO peripheral for STM32L0xx family de
 361:Drivers/STM32L0xx_HAL_Driver/Src/stm32l0xx_hal_gpio.c ****   *                Note that GPIOE is not available on all devices.
 362:Drivers/STM32L0xx_HAL_Driver/Src/stm32l0xx_hal_gpio.c ****   * @param  GPIO_Pin specifies the port bit to read.
 363:Drivers/STM32L0xx_HAL_Driver/Src/stm32l0xx_hal_gpio.c ****   *                   This parameter can be GPIO_PIN_x where x can be (0..15).
 364:Drivers/STM32L0xx_HAL_Driver/Src/stm32l0xx_hal_gpio.c ****   *                   All port bits are not necessarily available on all GPIOs.
 365:Drivers/STM32L0xx_HAL_Driver/Src/stm32l0xx_hal_gpio.c ****   * @retval The input port pin value.
 366:Drivers/STM32L0xx_HAL_Driver/Src/stm32l0xx_hal_gpio.c ****   */
 367:Drivers/STM32L0xx_HAL_Driver/Src/stm32l0xx_hal_gpio.c **** GPIO_PinState HAL_GPIO_ReadPin(GPIO_TypeDef *GPIOx, uint16_t GPIO_Pin)
 368:Drivers/STM32L0xx_HAL_Driver/Src/stm32l0xx_hal_gpio.c **** {
 720              		.loc 1 368 1 is_stmt 1 view -0
 721              		.cfi_startproc
 722              		@ args = 0, pretend = 0, frame = 0
 723              		@ frame_needed = 0, uses_anonymous_args = 0
 724              		@ link register save eliminated.
 369:Drivers/STM32L0xx_HAL_Driver/Src/stm32l0xx_hal_gpio.c ****   GPIO_PinState bitstatus;
 725              		.loc 1 369 3 view .LVU229
 370:Drivers/STM32L0xx_HAL_Driver/Src/stm32l0xx_hal_gpio.c **** 
 371:Drivers/STM32L0xx_HAL_Driver/Src/stm32l0xx_hal_gpio.c ****   /* Check the parameters */
 372:Drivers/STM32L0xx_HAL_Driver/Src/stm32l0xx_hal_gpio.c ****   assert_param(IS_GPIO_PIN_AVAILABLE(GPIOx, GPIO_Pin));
 726              		.loc 1 372 3 view .LVU230
 373:Drivers/STM32L0xx_HAL_Driver/Src/stm32l0xx_hal_gpio.c **** 
 374:Drivers/STM32L0xx_HAL_Driver/Src/stm32l0xx_hal_gpio.c ****   if ((GPIOx->IDR & GPIO_Pin) != (uint32_t)GPIO_PIN_RESET)
 727              		.loc 1 374 3 view .LVU231
 728              		.loc 1 374 13 is_stmt 0 view .LVU232
 729 0000 0369     		ldr	r3, [r0, #16]
ARM GAS  /tmp/ccbnVyb0.s 			page 22


 730              		.loc 1 374 6 view .LVU233
 731 0002 0B42     		tst	r3, r1
 732 0004 01D0     		beq	.L42
 375:Drivers/STM32L0xx_HAL_Driver/Src/stm32l0xx_hal_gpio.c ****   {
 376:Drivers/STM32L0xx_HAL_Driver/Src/stm32l0xx_hal_gpio.c ****     bitstatus = GPIO_PIN_SET;
 733              		.loc 1 376 15 view .LVU234
 734 0006 0120     		movs	r0, #1
 735              	.LVL63:
 736              	.L41:
 377:Drivers/STM32L0xx_HAL_Driver/Src/stm32l0xx_hal_gpio.c ****   }
 378:Drivers/STM32L0xx_HAL_Driver/Src/stm32l0xx_hal_gpio.c ****   else
 379:Drivers/STM32L0xx_HAL_Driver/Src/stm32l0xx_hal_gpio.c ****   {
 380:Drivers/STM32L0xx_HAL_Driver/Src/stm32l0xx_hal_gpio.c ****     bitstatus = GPIO_PIN_RESET;
 381:Drivers/STM32L0xx_HAL_Driver/Src/stm32l0xx_hal_gpio.c ****   }
 382:Drivers/STM32L0xx_HAL_Driver/Src/stm32l0xx_hal_gpio.c ****   return bitstatus;
 737              		.loc 1 382 3 is_stmt 1 view .LVU235
 383:Drivers/STM32L0xx_HAL_Driver/Src/stm32l0xx_hal_gpio.c **** }
 738              		.loc 1 383 1 is_stmt 0 view .LVU236
 739              		@ sp needed
 740 0008 7047     		bx	lr
 741              	.LVL64:
 742              	.L42:
 380:Drivers/STM32L0xx_HAL_Driver/Src/stm32l0xx_hal_gpio.c ****   }
 743              		.loc 1 380 15 view .LVU237
 744 000a 0020     		movs	r0, #0
 745              	.LVL65:
 380:Drivers/STM32L0xx_HAL_Driver/Src/stm32l0xx_hal_gpio.c ****   }
 746              		.loc 1 380 15 view .LVU238
 747 000c FCE7     		b	.L41
 748              		.cfi_endproc
 749              	.LFE49:
 751              		.section	.text.HAL_GPIO_WritePin,"ax",%progbits
 752              		.align	1
 753              		.global	HAL_GPIO_WritePin
 754              		.syntax unified
 755              		.code	16
 756              		.thumb_func
 758              	HAL_GPIO_WritePin:
 759              	.LVL66:
 760              	.LFB50:
 384:Drivers/STM32L0xx_HAL_Driver/Src/stm32l0xx_hal_gpio.c **** 
 385:Drivers/STM32L0xx_HAL_Driver/Src/stm32l0xx_hal_gpio.c **** /**
 386:Drivers/STM32L0xx_HAL_Driver/Src/stm32l0xx_hal_gpio.c ****   * @brief  Sets or clears the selected data port bit.
 387:Drivers/STM32L0xx_HAL_Driver/Src/stm32l0xx_hal_gpio.c ****   *
 388:Drivers/STM32L0xx_HAL_Driver/Src/stm32l0xx_hal_gpio.c ****   * @note   This function uses GPIOx_BSRR register to allow atomic read/modify
 389:Drivers/STM32L0xx_HAL_Driver/Src/stm32l0xx_hal_gpio.c ****   *         accesses. In this way, there is no risk of an IRQ occurring between
 390:Drivers/STM32L0xx_HAL_Driver/Src/stm32l0xx_hal_gpio.c ****   *         the read and the modify access.
 391:Drivers/STM32L0xx_HAL_Driver/Src/stm32l0xx_hal_gpio.c ****   *
 392:Drivers/STM32L0xx_HAL_Driver/Src/stm32l0xx_hal_gpio.c ****   * @param  GPIOx where x can be (A..E and H) to select the GPIO peripheral for STM32L0xx family de
 393:Drivers/STM32L0xx_HAL_Driver/Src/stm32l0xx_hal_gpio.c ****   *                Note that GPIOE is not available on all devices.
 394:Drivers/STM32L0xx_HAL_Driver/Src/stm32l0xx_hal_gpio.c ****   * @param  GPIO_Pin specifies the port bit to be written.
 395:Drivers/STM32L0xx_HAL_Driver/Src/stm32l0xx_hal_gpio.c ****   *                   This parameter can be one of GPIO_PIN_x where x can be (0..15).
 396:Drivers/STM32L0xx_HAL_Driver/Src/stm32l0xx_hal_gpio.c ****   *                   All port bits are not necessarily available on all GPIOs.
 397:Drivers/STM32L0xx_HAL_Driver/Src/stm32l0xx_hal_gpio.c ****   * @param  PinState specifies the value to be written to the selected bit.
 398:Drivers/STM32L0xx_HAL_Driver/Src/stm32l0xx_hal_gpio.c ****   *                   This parameter can be one of the GPIO_PinState enum values:
 399:Drivers/STM32L0xx_HAL_Driver/Src/stm32l0xx_hal_gpio.c ****   *                        GPIO_PIN_RESET: to clear the port pin
 400:Drivers/STM32L0xx_HAL_Driver/Src/stm32l0xx_hal_gpio.c ****   *                        GPIO_PIN_SET: to set the port pin
ARM GAS  /tmp/ccbnVyb0.s 			page 23


 401:Drivers/STM32L0xx_HAL_Driver/Src/stm32l0xx_hal_gpio.c ****   * @retval None
 402:Drivers/STM32L0xx_HAL_Driver/Src/stm32l0xx_hal_gpio.c ****   */
 403:Drivers/STM32L0xx_HAL_Driver/Src/stm32l0xx_hal_gpio.c **** void HAL_GPIO_WritePin(GPIO_TypeDef *GPIOx, uint16_t GPIO_Pin, GPIO_PinState PinState)
 404:Drivers/STM32L0xx_HAL_Driver/Src/stm32l0xx_hal_gpio.c **** {
 761              		.loc 1 404 1 is_stmt 1 view -0
 762              		.cfi_startproc
 763              		@ args = 0, pretend = 0, frame = 0
 764              		@ frame_needed = 0, uses_anonymous_args = 0
 765              		@ link register save eliminated.
 405:Drivers/STM32L0xx_HAL_Driver/Src/stm32l0xx_hal_gpio.c ****   /* Check the parameters */
 406:Drivers/STM32L0xx_HAL_Driver/Src/stm32l0xx_hal_gpio.c ****   assert_param(IS_GPIO_PIN_AVAILABLE(GPIOx, GPIO_Pin));
 766              		.loc 1 406 3 view .LVU240
 407:Drivers/STM32L0xx_HAL_Driver/Src/stm32l0xx_hal_gpio.c ****   assert_param(IS_GPIO_PIN_ACTION(PinState));
 767              		.loc 1 407 3 view .LVU241
 408:Drivers/STM32L0xx_HAL_Driver/Src/stm32l0xx_hal_gpio.c **** 
 409:Drivers/STM32L0xx_HAL_Driver/Src/stm32l0xx_hal_gpio.c ****   if (PinState != GPIO_PIN_RESET)
 768              		.loc 1 409 3 view .LVU242
 769              		.loc 1 409 6 is_stmt 0 view .LVU243
 770 0000 002A     		cmp	r2, #0
 771 0002 01D0     		beq	.L44
 410:Drivers/STM32L0xx_HAL_Driver/Src/stm32l0xx_hal_gpio.c ****   {
 411:Drivers/STM32L0xx_HAL_Driver/Src/stm32l0xx_hal_gpio.c ****     GPIOx->BSRR = GPIO_Pin;
 772              		.loc 1 411 5 is_stmt 1 view .LVU244
 773              		.loc 1 411 17 is_stmt 0 view .LVU245
 774 0004 8161     		str	r1, [r0, #24]
 775              	.L43:
 412:Drivers/STM32L0xx_HAL_Driver/Src/stm32l0xx_hal_gpio.c ****   }
 413:Drivers/STM32L0xx_HAL_Driver/Src/stm32l0xx_hal_gpio.c ****   else
 414:Drivers/STM32L0xx_HAL_Driver/Src/stm32l0xx_hal_gpio.c ****   {
 415:Drivers/STM32L0xx_HAL_Driver/Src/stm32l0xx_hal_gpio.c ****     GPIOx->BRR = GPIO_Pin ;
 416:Drivers/STM32L0xx_HAL_Driver/Src/stm32l0xx_hal_gpio.c ****   }
 417:Drivers/STM32L0xx_HAL_Driver/Src/stm32l0xx_hal_gpio.c **** }
 776              		.loc 1 417 1 view .LVU246
 777              		@ sp needed
 778 0006 7047     		bx	lr
 779              	.L44:
 415:Drivers/STM32L0xx_HAL_Driver/Src/stm32l0xx_hal_gpio.c ****   }
 780              		.loc 1 415 5 is_stmt 1 view .LVU247
 415:Drivers/STM32L0xx_HAL_Driver/Src/stm32l0xx_hal_gpio.c ****   }
 781              		.loc 1 415 16 is_stmt 0 view .LVU248
 782 0008 8162     		str	r1, [r0, #40]
 783              		.loc 1 417 1 view .LVU249
 784 000a FCE7     		b	.L43
 785              		.cfi_endproc
 786              	.LFE50:
 788              		.section	.text.HAL_GPIO_TogglePin,"ax",%progbits
 789              		.align	1
 790              		.global	HAL_GPIO_TogglePin
 791              		.syntax unified
 792              		.code	16
 793              		.thumb_func
 795              	HAL_GPIO_TogglePin:
 796              	.LVL67:
 797              	.LFB51:
 418:Drivers/STM32L0xx_HAL_Driver/Src/stm32l0xx_hal_gpio.c **** 
 419:Drivers/STM32L0xx_HAL_Driver/Src/stm32l0xx_hal_gpio.c **** /**
 420:Drivers/STM32L0xx_HAL_Driver/Src/stm32l0xx_hal_gpio.c ****   * @brief  Toggles the specified GPIO pins.
ARM GAS  /tmp/ccbnVyb0.s 			page 24


 421:Drivers/STM32L0xx_HAL_Driver/Src/stm32l0xx_hal_gpio.c ****   * @param  GPIOx Where x can be (A..E and H) to select the GPIO peripheral for STM32L0xx family de
 422:Drivers/STM32L0xx_HAL_Driver/Src/stm32l0xx_hal_gpio.c ****   *                Note that GPIOE is not available on all devices.
 423:Drivers/STM32L0xx_HAL_Driver/Src/stm32l0xx_hal_gpio.c ****   *                All port bits are not necessarily available on all GPIOs.
 424:Drivers/STM32L0xx_HAL_Driver/Src/stm32l0xx_hal_gpio.c ****   * @param  GPIO_Pin Specifies the pins to be toggled.
 425:Drivers/STM32L0xx_HAL_Driver/Src/stm32l0xx_hal_gpio.c ****   * @retval None
 426:Drivers/STM32L0xx_HAL_Driver/Src/stm32l0xx_hal_gpio.c ****   */
 427:Drivers/STM32L0xx_HAL_Driver/Src/stm32l0xx_hal_gpio.c **** void HAL_GPIO_TogglePin(GPIO_TypeDef *GPIOx, uint16_t GPIO_Pin)
 428:Drivers/STM32L0xx_HAL_Driver/Src/stm32l0xx_hal_gpio.c **** {
 798              		.loc 1 428 1 is_stmt 1 view -0
 799              		.cfi_startproc
 800              		@ args = 0, pretend = 0, frame = 0
 801              		@ frame_needed = 0, uses_anonymous_args = 0
 802              		@ link register save eliminated.
 429:Drivers/STM32L0xx_HAL_Driver/Src/stm32l0xx_hal_gpio.c ****   uint32_t odr;
 803              		.loc 1 429 3 view .LVU251
 430:Drivers/STM32L0xx_HAL_Driver/Src/stm32l0xx_hal_gpio.c **** 
 431:Drivers/STM32L0xx_HAL_Driver/Src/stm32l0xx_hal_gpio.c ****   /* Check the parameters */
 432:Drivers/STM32L0xx_HAL_Driver/Src/stm32l0xx_hal_gpio.c ****   assert_param(IS_GPIO_PIN_AVAILABLE(GPIOx, GPIO_Pin));
 804              		.loc 1 432 3 view .LVU252
 433:Drivers/STM32L0xx_HAL_Driver/Src/stm32l0xx_hal_gpio.c **** 
 434:Drivers/STM32L0xx_HAL_Driver/Src/stm32l0xx_hal_gpio.c ****   /* get current Ouput Data Register value */
 435:Drivers/STM32L0xx_HAL_Driver/Src/stm32l0xx_hal_gpio.c ****   odr = GPIOx->ODR;
 805              		.loc 1 435 3 view .LVU253
 806              		.loc 1 435 7 is_stmt 0 view .LVU254
 807 0000 4269     		ldr	r2, [r0, #20]
 808              	.LVL68:
 436:Drivers/STM32L0xx_HAL_Driver/Src/stm32l0xx_hal_gpio.c **** 
 437:Drivers/STM32L0xx_HAL_Driver/Src/stm32l0xx_hal_gpio.c ****   /* Set selected pins that were at low level, and reset ones that were high */
 438:Drivers/STM32L0xx_HAL_Driver/Src/stm32l0xx_hal_gpio.c ****   GPIOx->BSRR = ((odr & GPIO_Pin) << GPIO_NUMBER) | (~odr & GPIO_Pin);
 809              		.loc 1 438 3 is_stmt 1 view .LVU255
 810              		.loc 1 438 23 is_stmt 0 view .LVU256
 811 0002 1300     		movs	r3, r2
 812 0004 0B40     		ands	r3, r1
 813              		.loc 1 438 35 view .LVU257
 814 0006 1B04     		lsls	r3, r3, #16
 815              		.loc 1 438 59 view .LVU258
 816 0008 9143     		bics	r1, r2
 817              	.LVL69:
 818              		.loc 1 438 51 view .LVU259
 819 000a 1943     		orrs	r1, r3
 820              		.loc 1 438 15 view .LVU260
 821 000c 8161     		str	r1, [r0, #24]
 439:Drivers/STM32L0xx_HAL_Driver/Src/stm32l0xx_hal_gpio.c **** }
 822              		.loc 1 439 1 view .LVU261
 823              		@ sp needed
 824 000e 7047     		bx	lr
 825              		.cfi_endproc
 826              	.LFE51:
 828              		.section	.text.HAL_GPIO_LockPin,"ax",%progbits
 829              		.align	1
 830              		.global	HAL_GPIO_LockPin
 831              		.syntax unified
 832              		.code	16
 833              		.thumb_func
 835              	HAL_GPIO_LockPin:
 836              	.LVL70:
 837              	.LFB52:
ARM GAS  /tmp/ccbnVyb0.s 			page 25


 440:Drivers/STM32L0xx_HAL_Driver/Src/stm32l0xx_hal_gpio.c **** 
 441:Drivers/STM32L0xx_HAL_Driver/Src/stm32l0xx_hal_gpio.c **** /**
 442:Drivers/STM32L0xx_HAL_Driver/Src/stm32l0xx_hal_gpio.c **** * @brief  Locks GPIO Pins configuration registers.
 443:Drivers/STM32L0xx_HAL_Driver/Src/stm32l0xx_hal_gpio.c **** * @note   The locked registers are GPIOx_MODER, GPIOx_OTYPER, GPIOx_OSPEEDR,
 444:Drivers/STM32L0xx_HAL_Driver/Src/stm32l0xx_hal_gpio.c **** *         GPIOx_PUPDR, GPIOx_AFRL and GPIOx_AFRH.
 445:Drivers/STM32L0xx_HAL_Driver/Src/stm32l0xx_hal_gpio.c **** * @note   The configuration of the locked GPIO pins can no longer be modified
 446:Drivers/STM32L0xx_HAL_Driver/Src/stm32l0xx_hal_gpio.c **** *         until the next reset.
 447:Drivers/STM32L0xx_HAL_Driver/Src/stm32l0xx_hal_gpio.c **** * @param  GPIOx where x can be (A..E and H) to select the GPIO peripheral for STM32L0xx family.
 448:Drivers/STM32L0xx_HAL_Driver/Src/stm32l0xx_hal_gpio.c **** *                Note that GPIOE is not available on all devices.
 449:Drivers/STM32L0xx_HAL_Driver/Src/stm32l0xx_hal_gpio.c **** * @param  GPIO_Pin specifies the port bit to be locked.
 450:Drivers/STM32L0xx_HAL_Driver/Src/stm32l0xx_hal_gpio.c **** *         This parameter can be any combination of GPIO_Pin_x where x can be (0..15).
 451:Drivers/STM32L0xx_HAL_Driver/Src/stm32l0xx_hal_gpio.c **** *         All port bits are not necessarily available on all GPIOs.
 452:Drivers/STM32L0xx_HAL_Driver/Src/stm32l0xx_hal_gpio.c **** * @retval None
 453:Drivers/STM32L0xx_HAL_Driver/Src/stm32l0xx_hal_gpio.c **** */
 454:Drivers/STM32L0xx_HAL_Driver/Src/stm32l0xx_hal_gpio.c **** HAL_StatusTypeDef HAL_GPIO_LockPin(GPIO_TypeDef *GPIOx, uint16_t GPIO_Pin)
 455:Drivers/STM32L0xx_HAL_Driver/Src/stm32l0xx_hal_gpio.c **** {
 838              		.loc 1 455 1 is_stmt 1 view -0
 839              		.cfi_startproc
 840              		@ args = 0, pretend = 0, frame = 8
 841              		@ frame_needed = 0, uses_anonymous_args = 0
 842              		@ link register save eliminated.
 843              		.loc 1 455 1 is_stmt 0 view .LVU263
 844 0000 82B0     		sub	sp, sp, #8
 845              	.LCFI3:
 846              		.cfi_def_cfa_offset 8
 456:Drivers/STM32L0xx_HAL_Driver/Src/stm32l0xx_hal_gpio.c ****   __IO uint32_t tmp = GPIO_LCKR_LCKK;
 847              		.loc 1 456 3 is_stmt 1 view .LVU264
 848              		.loc 1 456 17 is_stmt 0 view .LVU265
 849 0002 8022     		movs	r2, #128
 850 0004 5202     		lsls	r2, r2, #9
 851 0006 0192     		str	r2, [sp, #4]
 457:Drivers/STM32L0xx_HAL_Driver/Src/stm32l0xx_hal_gpio.c **** 
 458:Drivers/STM32L0xx_HAL_Driver/Src/stm32l0xx_hal_gpio.c ****   /* Check the parameters */
 459:Drivers/STM32L0xx_HAL_Driver/Src/stm32l0xx_hal_gpio.c ****   assert_param(IS_GPIO_PIN_AVAILABLE(GPIOx, GPIO_Pin));
 852              		.loc 1 459 3 is_stmt 1 view .LVU266
 460:Drivers/STM32L0xx_HAL_Driver/Src/stm32l0xx_hal_gpio.c **** 
 461:Drivers/STM32L0xx_HAL_Driver/Src/stm32l0xx_hal_gpio.c ****   /* Apply lock key write sequence */
 462:Drivers/STM32L0xx_HAL_Driver/Src/stm32l0xx_hal_gpio.c ****   tmp |= GPIO_Pin;
 853              		.loc 1 462 3 view .LVU267
 854              		.loc 1 462 7 is_stmt 0 view .LVU268
 855 0008 019B     		ldr	r3, [sp, #4]
 856 000a 0B43     		orrs	r3, r1
 857 000c 0193     		str	r3, [sp, #4]
 463:Drivers/STM32L0xx_HAL_Driver/Src/stm32l0xx_hal_gpio.c ****   /* Set LCKx bit(s): LCKK='1' + LCK[15-0] */
 464:Drivers/STM32L0xx_HAL_Driver/Src/stm32l0xx_hal_gpio.c ****   GPIOx->LCKR = tmp;
 858              		.loc 1 464 3 is_stmt 1 view .LVU269
 859              		.loc 1 464 15 is_stmt 0 view .LVU270
 860 000e 019B     		ldr	r3, [sp, #4]
 861 0010 C361     		str	r3, [r0, #28]
 465:Drivers/STM32L0xx_HAL_Driver/Src/stm32l0xx_hal_gpio.c ****   /* Reset LCKx bit(s): LCKK='0' + LCK[15-0] */
 466:Drivers/STM32L0xx_HAL_Driver/Src/stm32l0xx_hal_gpio.c ****   GPIOx->LCKR = GPIO_Pin;
 862              		.loc 1 466 3 is_stmt 1 view .LVU271
 863              		.loc 1 466 15 is_stmt 0 view .LVU272
 864 0012 C161     		str	r1, [r0, #28]
 467:Drivers/STM32L0xx_HAL_Driver/Src/stm32l0xx_hal_gpio.c ****   /* Set LCKx bit(s): LCKK='1' + LCK[15-0] */
 468:Drivers/STM32L0xx_HAL_Driver/Src/stm32l0xx_hal_gpio.c ****   GPIOx->LCKR = tmp;
 865              		.loc 1 468 3 is_stmt 1 view .LVU273
ARM GAS  /tmp/ccbnVyb0.s 			page 26


 866              		.loc 1 468 15 is_stmt 0 view .LVU274
 867 0014 019B     		ldr	r3, [sp, #4]
 868 0016 C361     		str	r3, [r0, #28]
 469:Drivers/STM32L0xx_HAL_Driver/Src/stm32l0xx_hal_gpio.c ****   /* Read LCKK register. This read is mandatory to complete key lock sequence */
 470:Drivers/STM32L0xx_HAL_Driver/Src/stm32l0xx_hal_gpio.c ****   tmp = GPIOx->LCKR;
 869              		.loc 1 470 3 is_stmt 1 view .LVU275
 870              		.loc 1 470 14 is_stmt 0 view .LVU276
 871 0018 C369     		ldr	r3, [r0, #28]
 872              		.loc 1 470 7 view .LVU277
 873 001a 0193     		str	r3, [sp, #4]
 471:Drivers/STM32L0xx_HAL_Driver/Src/stm32l0xx_hal_gpio.c **** 
 472:Drivers/STM32L0xx_HAL_Driver/Src/stm32l0xx_hal_gpio.c ****   /* read again in order to confirm lock is active */
 473:Drivers/STM32L0xx_HAL_Driver/Src/stm32l0xx_hal_gpio.c ****   if ((GPIOx->LCKR & GPIO_LCKR_LCKK) != RESET)
 874              		.loc 1 473 3 is_stmt 1 view .LVU278
 875              		.loc 1 473 13 is_stmt 0 view .LVU279
 876 001c C369     		ldr	r3, [r0, #28]
 877              		.loc 1 473 6 view .LVU280
 878 001e 1342     		tst	r3, r2
 879 0020 02D0     		beq	.L49
 474:Drivers/STM32L0xx_HAL_Driver/Src/stm32l0xx_hal_gpio.c ****   {
 475:Drivers/STM32L0xx_HAL_Driver/Src/stm32l0xx_hal_gpio.c ****     return HAL_OK;
 880              		.loc 1 475 12 view .LVU281
 881 0022 0020     		movs	r0, #0
 882              	.LVL71:
 883              	.L48:
 476:Drivers/STM32L0xx_HAL_Driver/Src/stm32l0xx_hal_gpio.c ****   }
 477:Drivers/STM32L0xx_HAL_Driver/Src/stm32l0xx_hal_gpio.c ****   else
 478:Drivers/STM32L0xx_HAL_Driver/Src/stm32l0xx_hal_gpio.c ****   {
 479:Drivers/STM32L0xx_HAL_Driver/Src/stm32l0xx_hal_gpio.c ****     return HAL_ERROR;
 480:Drivers/STM32L0xx_HAL_Driver/Src/stm32l0xx_hal_gpio.c ****   }
 481:Drivers/STM32L0xx_HAL_Driver/Src/stm32l0xx_hal_gpio.c **** }
 884              		.loc 1 481 1 view .LVU282
 885 0024 02B0     		add	sp, sp, #8
 886              		@ sp needed
 887 0026 7047     		bx	lr
 888              	.LVL72:
 889              	.L49:
 479:Drivers/STM32L0xx_HAL_Driver/Src/stm32l0xx_hal_gpio.c ****   }
 890              		.loc 1 479 12 view .LVU283
 891 0028 0120     		movs	r0, #1
 892              	.LVL73:
 479:Drivers/STM32L0xx_HAL_Driver/Src/stm32l0xx_hal_gpio.c ****   }
 893              		.loc 1 479 12 view .LVU284
 894 002a FBE7     		b	.L48
 895              		.cfi_endproc
 896              	.LFE52:
 898              		.section	.text.HAL_GPIO_EXTI_Callback,"ax",%progbits
 899              		.align	1
 900              		.weak	HAL_GPIO_EXTI_Callback
 901              		.syntax unified
 902              		.code	16
 903              		.thumb_func
 905              	HAL_GPIO_EXTI_Callback:
 906              	.LVL74:
 907              	.LFB54:
 482:Drivers/STM32L0xx_HAL_Driver/Src/stm32l0xx_hal_gpio.c **** /**
 483:Drivers/STM32L0xx_HAL_Driver/Src/stm32l0xx_hal_gpio.c ****   * @brief  This function handles EXTI interrupt request.
ARM GAS  /tmp/ccbnVyb0.s 			page 27


 484:Drivers/STM32L0xx_HAL_Driver/Src/stm32l0xx_hal_gpio.c ****   * @param  GPIO_Pin Specifies the pins connected to the EXTI line.
 485:Drivers/STM32L0xx_HAL_Driver/Src/stm32l0xx_hal_gpio.c ****   * @retval None
 486:Drivers/STM32L0xx_HAL_Driver/Src/stm32l0xx_hal_gpio.c ****   */
 487:Drivers/STM32L0xx_HAL_Driver/Src/stm32l0xx_hal_gpio.c **** void HAL_GPIO_EXTI_IRQHandler(uint16_t GPIO_Pin)
 488:Drivers/STM32L0xx_HAL_Driver/Src/stm32l0xx_hal_gpio.c **** {
 489:Drivers/STM32L0xx_HAL_Driver/Src/stm32l0xx_hal_gpio.c ****   /* EXTI line interrupt detected */
 490:Drivers/STM32L0xx_HAL_Driver/Src/stm32l0xx_hal_gpio.c ****   if (__HAL_GPIO_EXTI_GET_IT(GPIO_Pin) != RESET)
 491:Drivers/STM32L0xx_HAL_Driver/Src/stm32l0xx_hal_gpio.c ****   {
 492:Drivers/STM32L0xx_HAL_Driver/Src/stm32l0xx_hal_gpio.c ****     __HAL_GPIO_EXTI_CLEAR_IT(GPIO_Pin);
 493:Drivers/STM32L0xx_HAL_Driver/Src/stm32l0xx_hal_gpio.c ****     HAL_GPIO_EXTI_Callback(GPIO_Pin);
 494:Drivers/STM32L0xx_HAL_Driver/Src/stm32l0xx_hal_gpio.c ****   }
 495:Drivers/STM32L0xx_HAL_Driver/Src/stm32l0xx_hal_gpio.c **** }
 496:Drivers/STM32L0xx_HAL_Driver/Src/stm32l0xx_hal_gpio.c **** 
 497:Drivers/STM32L0xx_HAL_Driver/Src/stm32l0xx_hal_gpio.c **** /**
 498:Drivers/STM32L0xx_HAL_Driver/Src/stm32l0xx_hal_gpio.c ****   * @brief  EXTI line detection callbacks.
 499:Drivers/STM32L0xx_HAL_Driver/Src/stm32l0xx_hal_gpio.c ****   * @param  GPIO_Pin Specifies the pins connected to the EXTI line.
 500:Drivers/STM32L0xx_HAL_Driver/Src/stm32l0xx_hal_gpio.c ****   * @retval None
 501:Drivers/STM32L0xx_HAL_Driver/Src/stm32l0xx_hal_gpio.c ****   */
 502:Drivers/STM32L0xx_HAL_Driver/Src/stm32l0xx_hal_gpio.c **** __weak void HAL_GPIO_EXTI_Callback(uint16_t GPIO_Pin)
 503:Drivers/STM32L0xx_HAL_Driver/Src/stm32l0xx_hal_gpio.c **** {
 908              		.loc 1 503 1 is_stmt 1 view -0
 909              		.cfi_startproc
 910              		@ args = 0, pretend = 0, frame = 0
 911              		@ frame_needed = 0, uses_anonymous_args = 0
 912              		@ link register save eliminated.
 504:Drivers/STM32L0xx_HAL_Driver/Src/stm32l0xx_hal_gpio.c ****   /* Prevent unused argument(s) compilation warning */
 505:Drivers/STM32L0xx_HAL_Driver/Src/stm32l0xx_hal_gpio.c ****   UNUSED(GPIO_Pin);
 913              		.loc 1 505 3 view .LVU286
 506:Drivers/STM32L0xx_HAL_Driver/Src/stm32l0xx_hal_gpio.c **** 
 507:Drivers/STM32L0xx_HAL_Driver/Src/stm32l0xx_hal_gpio.c ****   /* NOTE: This function Should not be modified, when the callback is needed,
 508:Drivers/STM32L0xx_HAL_Driver/Src/stm32l0xx_hal_gpio.c ****            the HAL_GPIO_EXTI_Callback could be implemented in the user file
 509:Drivers/STM32L0xx_HAL_Driver/Src/stm32l0xx_hal_gpio.c ****    */
 510:Drivers/STM32L0xx_HAL_Driver/Src/stm32l0xx_hal_gpio.c **** }
 914              		.loc 1 510 1 is_stmt 0 view .LVU287
 915              		@ sp needed
 916 0000 7047     		bx	lr
 917              		.cfi_endproc
 918              	.LFE54:
 920              		.section	.text.HAL_GPIO_EXTI_IRQHandler,"ax",%progbits
 921              		.align	1
 922              		.global	HAL_GPIO_EXTI_IRQHandler
 923              		.syntax unified
 924              		.code	16
 925              		.thumb_func
 927              	HAL_GPIO_EXTI_IRQHandler:
 928              	.LVL75:
 929              	.LFB53:
 488:Drivers/STM32L0xx_HAL_Driver/Src/stm32l0xx_hal_gpio.c ****   /* EXTI line interrupt detected */
 930              		.loc 1 488 1 is_stmt 1 view -0
 931              		.cfi_startproc
 932              		@ args = 0, pretend = 0, frame = 0
 933              		@ frame_needed = 0, uses_anonymous_args = 0
 488:Drivers/STM32L0xx_HAL_Driver/Src/stm32l0xx_hal_gpio.c ****   /* EXTI line interrupt detected */
 934              		.loc 1 488 1 is_stmt 0 view .LVU289
 935 0000 10B5     		push	{r4, lr}
 936              	.LCFI4:
 937              		.cfi_def_cfa_offset 8
ARM GAS  /tmp/ccbnVyb0.s 			page 28


 938              		.cfi_offset 4, -8
 939              		.cfi_offset 14, -4
 490:Drivers/STM32L0xx_HAL_Driver/Src/stm32l0xx_hal_gpio.c ****   {
 940              		.loc 1 490 3 is_stmt 1 view .LVU290
 490:Drivers/STM32L0xx_HAL_Driver/Src/stm32l0xx_hal_gpio.c ****   {
 941              		.loc 1 490 7 is_stmt 0 view .LVU291
 942 0002 054B     		ldr	r3, .L54
 943 0004 5B69     		ldr	r3, [r3, #20]
 490:Drivers/STM32L0xx_HAL_Driver/Src/stm32l0xx_hal_gpio.c ****   {
 944              		.loc 1 490 6 view .LVU292
 945 0006 1842     		tst	r0, r3
 946 0008 00D1     		bne	.L53
 947              	.LVL76:
 948              	.L51:
 495:Drivers/STM32L0xx_HAL_Driver/Src/stm32l0xx_hal_gpio.c **** 
 949              		.loc 1 495 1 view .LVU293
 950              		@ sp needed
 951 000a 10BD     		pop	{r4, pc}
 952              	.LVL77:
 953              	.L53:
 492:Drivers/STM32L0xx_HAL_Driver/Src/stm32l0xx_hal_gpio.c ****     HAL_GPIO_EXTI_Callback(GPIO_Pin);
 954              		.loc 1 492 5 is_stmt 1 view .LVU294
 955 000c 024B     		ldr	r3, .L54
 956 000e 5861     		str	r0, [r3, #20]
 493:Drivers/STM32L0xx_HAL_Driver/Src/stm32l0xx_hal_gpio.c ****   }
 957              		.loc 1 493 5 view .LVU295
 958 0010 FFF7FEFF 		bl	HAL_GPIO_EXTI_Callback
 959              	.LVL78:
 495:Drivers/STM32L0xx_HAL_Driver/Src/stm32l0xx_hal_gpio.c **** 
 960              		.loc 1 495 1 is_stmt 0 view .LVU296
 961 0014 F9E7     		b	.L51
 962              	.L55:
 963 0016 C046     		.align	2
 964              	.L54:
 965 0018 00040140 		.word	1073808384
 966              		.cfi_endproc
 967              	.LFE53:
 969              		.text
 970              	.Letext0:
 971              		.file 2 "/opt/gcc-arm-none-eabi-10.3-2021.10/arm-none-eabi/include/machine/_default_types.h"
 972              		.file 3 "/opt/gcc-arm-none-eabi-10.3-2021.10/arm-none-eabi/include/sys/_stdint.h"
 973              		.file 4 "Drivers/CMSIS/Device/ST/STM32L0xx/Include/stm32l051xx.h"
 974              		.file 5 "Drivers/CMSIS/Device/ST/STM32L0xx/Include/stm32l0xx.h"
 975              		.file 6 "Drivers/STM32L0xx_HAL_Driver/Inc/stm32l0xx_hal_def.h"
 976              		.file 7 "Drivers/STM32L0xx_HAL_Driver/Inc/stm32l0xx_hal_gpio.h"
ARM GAS  /tmp/ccbnVyb0.s 			page 29

